Archive member included because of file (symbol)

libbb/lib.a(appletlib.o)      /opt/buildroot-gcc342/bin/../lib/gcc/mipsel-linux-uclibc/3.4.2/../../../../mipsel-linux-uclibc/lib/crt1.o (main)
libbb/lib.a(bb_basename.o)    libbb/lib.a(appletlib.o) (bb_basename)
libbb/lib.a(bb_strtonum.o)    libbb/lib.a(appletlib.o) (bb_strtoul)
libbb/lib.a(default_error_retval.o)
                              libbb/lib.a(appletlib.o) (xfunc_error_retval)
libbb/lib.a(error_msg_and_die.o)
                              libbb/lib.a(appletlib.o) (bb_error_msg_and_die)
libbb/lib.a(full_write.o)     libbb/lib.a(appletlib.o) (full_write)
libbb/lib.a(get_last_path_component.o)
                              libbb/lib.a(appletlib.o) (bb_get_last_path_component_nostrip)
libbb/lib.a(last_char_is.o)   libbb/lib.a(get_last_path_component.o) (last_char_is)
libbb/lib.a(messages.o)       libbb/lib.a(appletlib.o) (bb_banner)
libbb/lib.a(perror_msg_and_die.o)
                              libbb/lib.a(appletlib.o) (bb_perror_msg_and_die)
libbb/lib.a(ptr_to_globals.o)
                              libbb/lib.a(appletlib.o) (bb_errno)
libbb/lib.a(safe_write.o)     libbb/lib.a(full_write.o) (safe_write)
libbb/lib.a(skip_whitespace.o)
                              libbb/lib.a(appletlib.o) (skip_whitespace)
libbb/lib.a(verror_msg.o)     libbb/lib.a(error_msg_and_die.o) (bb_verror_msg)
libbb/lib.a(wfopen.o)         libbb/lib.a(appletlib.o) (fopen_for_read)
libbb/lib.a(xfunc_die.o)      libbb/lib.a(appletlib.o) (xfunc_die)
libbb/lib.a(xfuncs.o)         libbb/lib.a(appletlib.o) (get_terminal_width_height)
libbb/lib.a(xfuncs_printf.o)  libbb/lib.a(appletlib.o) (xmalloc)
libbb/lib.a(copyfd.o)         libbb/lib.a(xfuncs_printf.o) (bb_copyfd_eof)
libbb/lib.a(error_msg.o)      libbb/lib.a(xfuncs_printf.o) (bb_error_msg)
libbb/lib.a(perror_msg.o)     libbb/lib.a(xfuncs_printf.o) (bb_perror_msg)
libbb/lib.a(read.o)           libbb/lib.a(copyfd.o) (safe_read)
libbb/lib.a(safe_poll.o)      libbb/lib.a(read.o) (safe_poll)
loginutils/lib.a(addgroup.o)  libbb/lib.a(appletlib.o) (addgroup_main)
loginutils/lib.a(adduser.o)   libbb/lib.a(appletlib.o) (adduser_main)
loginutils/lib.a(chpasswd.o)  libbb/lib.a(appletlib.o) (chpasswd_main)
loginutils/lib.a(deluser.o)   libbb/lib.a(appletlib.o) (deluser_main)
loginutils/lib.a(getty.o)     libbb/lib.a(appletlib.o) (getty_main)
loginutils/lib.a(login.o)     libbb/lib.a(appletlib.o) (login_main)
loginutils/lib.a(passwd.o)    libbb/lib.a(appletlib.o) (passwd_main)
miscutils/lib.a(crond.o)      libbb/lib.a(appletlib.o) (crond_main)
miscutils/lib.a(eject.o)      libbb/lib.a(appletlib.o) (eject_main)
modutils/lib.a(insmod.o)      libbb/lib.a(appletlib.o) (insmod_main)
modutils/lib.a(lsmod.o)       libbb/lib.a(appletlib.o) (lsmod_main)
modutils/lib.a(rmmod.o)       libbb/lib.a(appletlib.o) (rmmod_main)
networking/lib.a(arp.o)       libbb/lib.a(appletlib.o) (arp_main)
networking/lib.a(arping.o)    libbb/lib.a(appletlib.o) (arping_main)
networking/lib.a(brctl.o)     libbb/lib.a(appletlib.o) (brctl_main)
networking/lib.a(ftpgetput.o)
                              libbb/lib.a(appletlib.o) (ftpgetput_main)
networking/lib.a(hostname.o)  libbb/lib.a(appletlib.o) (hostname_main)
networking/lib.a(ifconfig.o)  libbb/lib.a(appletlib.o) (ifconfig_main)
networking/lib.a(interface.o)
                              networking/lib.a(arp.o) (get_aftype)
networking/lib.a(ping.o)      libbb/lib.a(appletlib.o) (ping_main)
networking/lib.a(route.o)     libbb/lib.a(appletlib.o) (route_main)
networking/lib.a(telnetd.o)   libbb/lib.a(appletlib.o) (telnetd_main)
networking/lib.a(tftp.o)      libbb/lib.a(appletlib.o) (tftp_main)
networking/lib.a(vconfig.o)   libbb/lib.a(appletlib.o) (vconfig_main)
networking/lib.a(wget.o)      libbb/lib.a(appletlib.o) (wget_main)
networking/udhcp_multi/lib.a(dhcpc.o)
                              libbb/lib.a(appletlib.o) (udhcpc_main)
networking/udhcp_multi/lib.a(dhcpd.o)
                              libbb/lib.a(appletlib.o) (udhcpd_main)
networking/udhcp_multi/lib.a(files.o)
                              networking/udhcp_multi/lib.a(dhcpd.o) (find_option)
networking/udhcp_multi/lib.a(leases.o)
                              networking/udhcp_multi/lib.a(files.o) (utt_dhcpSrvNm)
networking/udhcp_multi/lib.a(options.o)
                              networking/udhcp_multi/lib.a(files.o) (dhcp_option_lengths)
networking/udhcp_multi/lib.a(packet.o)
                              networking/udhcp_multi/lib.a(dhcpd.o) (udhcp_recv_kernel_packet)
networking/udhcp_multi/lib.a(script.o)
                              networking/udhcp_multi/lib.a(dhcpc.o) (udhcp_run_script)
networking/udhcp_multi/lib.a(serverpacket.o)
                              networking/udhcp_multi/lib.a(dhcpd.o) (send_offer)
networking/udhcp_multi/lib.a(signalpipe.o)
                              networking/udhcp_multi/lib.a(dhcpc.o) (udhcp_sp_setup)
networking/udhcp_multi/lib.a(socket.o)
                              networking/udhcp_multi/lib.a(dhcpc.o) (udhcp_read_interface)
networking/udhcp_multi/lib.a(static_leases.o)
                              networking/udhcp_multi/lib.a(files.o) (addStaticLease)
networking/udhcp_multi/lib.a(arpping.o)
                              networking/udhcp_multi/lib.a(leases.o) (arpping)
networking/udhcp_multi/lib.a(clientpacket.o)
                              networking/udhcp_multi/lib.a(dhcpc.o) (random_xid)
networking/udhcp_multi/lib.a(clientsocket.o)
                              networking/udhcp_multi/lib.a(dhcpc.o) (raw_socket)
networking/udhcp_multi/lib.a(common.o)
                              networking/udhcp_multi/lib.a(serverpacket.o) (MAC_BCAST_ADDR)
procps/lib.a(free.o)          libbb/lib.a(appletlib.o) (free_main)
procps/lib.a(kill.o)          libbb/lib.a(appletlib.o) (kill_main)
procps/lib.a(ps.o)            libbb/lib.a(appletlib.o) (ps_main)
procps/lib.a(uptime.o)        libbb/lib.a(appletlib.o) (uptime_main)
shell/lib.a(ash.o)            libbb/lib.a(appletlib.o) (ash_main)
shell/lib.a(ash_ptr_hack.o)   shell/lib.a(ash.o) (ash_ptr_to_globals_misc)
sysklogd/lib.a(klogd.o)       libbb/lib.a(appletlib.o) (klogd_main)
sysklogd/lib.a(logread.o)     libbb/lib.a(appletlib.o) (logread_main)
sysklogd/lib.a(syslogd_and_logger.o)
                              libbb/lib.a(appletlib.o) (syslogd_main)
util-linux/lib.a(fdisk.o)     libbb/lib.a(appletlib.o) (fdisk_main)
util-linux/lib.a(mdev.o)      libbb/lib.a(appletlib.o) (mdev_main)
util-linux/lib.a(mount.o)     libbb/lib.a(appletlib.o) (mount_main)
util-linux/lib.a(umount.o)    libbb/lib.a(appletlib.o) (umount_main)
coreutils/lib.a(basename.o)   libbb/lib.a(appletlib.o) (basename_main)
coreutils/lib.a(cat.o)        libbb/lib.a(appletlib.o) (cat_main)
coreutils/lib.a(chmod.o)      libbb/lib.a(appletlib.o) (chmod_main)
coreutils/lib.a(cp.o)         libbb/lib.a(appletlib.o) (cp_main)
coreutils/lib.a(date.o)       libbb/lib.a(appletlib.o) (date_main)
coreutils/lib.a(dd.o)         libbb/lib.a(appletlib.o) (dd_main)
coreutils/lib.a(echo.o)       libbb/lib.a(appletlib.o) (echo_main)
coreutils/lib.a(expr.o)       libbb/lib.a(appletlib.o) (expr_main)
coreutils/lib.a(head.o)       libbb/lib.a(appletlib.o) (head_main)
coreutils/lib.a(id.o)         libbb/lib.a(appletlib.o) (id_main)
coreutils/lib.a(ls.o)         libbb/lib.a(appletlib.o) (ls_main)
coreutils/lib.a(mkdir.o)      libbb/lib.a(appletlib.o) (mkdir_main)
coreutils/lib.a(mknod.o)      libbb/lib.a(appletlib.o) (mknod_main)
coreutils/lib.a(mv.o)         libbb/lib.a(appletlib.o) (mv_main)
coreutils/lib.a(nice.o)       libbb/lib.a(appletlib.o) (nice_main)
coreutils/lib.a(printf.o)     libbb/lib.a(appletlib.o) (printf_main)
coreutils/lib.a(pwd.o)        libbb/lib.a(appletlib.o) (pwd_main)
coreutils/lib.a(rm.o)         libbb/lib.a(appletlib.o) (rm_main)
coreutils/lib.a(sleep.o)      libbb/lib.a(appletlib.o) (sleep_main)
coreutils/lib.a(sort.o)       libbb/lib.a(appletlib.o) (sort_main)
coreutils/lib.a(sync.o)       libbb/lib.a(appletlib.o) (sync_main)
coreutils/lib.a(test.o)       libbb/lib.a(appletlib.o) (test_main)
coreutils/lib.a(test_ptr_hack.o)
                              coreutils/lib.a(test.o) (test_ptr_to_statics)
coreutils/lib.a(touch.o)      libbb/lib.a(appletlib.o) (touch_main)
coreutils/lib.a(uname.o)      libbb/lib.a(appletlib.o) (uname_main)
coreutils/lib.a(wc.o)         libbb/lib.a(appletlib.o) (wc_main)
coreutils/libcoreutils/lib.a(cp_mv_stat.o)
                              coreutils/lib.a(cp.o) (cp_mv_stat2)
coreutils/libcoreutils/lib.a(getopt_mk_fifo_nod.o)
                              coreutils/lib.a(mknod.o) (getopt_mk_fifo_nod)
editors/lib.a(awk.o)          libbb/lib.a(appletlib.o) (awk_main)
editors/lib.a(sed.o)          libbb/lib.a(appletlib.o) (sed_main)
editors/lib.a(vi.o)           libbb/lib.a(appletlib.o) (vi_main)
findutils/lib.a(grep.o)       libbb/lib.a(appletlib.o) (grep_main)
init/lib.a(halt.o)            libbb/lib.a(appletlib.o) (halt_main)
init/lib.a(init.o)            libbb/lib.a(appletlib.o) (init_main)
libbb/lib.a(ask_confirmation.o)
                              coreutils/lib.a(mv.o) (bb_ask_confirmation)
libbb/lib.a(bb_askpass.o)     loginutils/lib.a(passwd.o) (bb_askpass)
libbb/lib.a(bb_do_delay.o)    loginutils/lib.a(login.o) (bb_do_delay)
libbb/lib.a(bb_pwd.o)         loginutils/lib.a(passwd.o) (bb_getpwuid)
libbb/lib.a(change_identity.o)
                              loginutils/lib.a(login.o) (change_identity)
libbb/lib.a(compare_string_array.o)
                              networking/lib.a(arp.o) (index_in_strings)
libbb/lib.a(concat_path_file.o)
                              networking/lib.a(wget.o) (concat_path_file)
libbb/lib.a(copy_file.o)      coreutils/lib.a(cp.o) (copy_file)
libbb/lib.a(correct_password.o)
                              loginutils/lib.a(login.o) (correct_password)
libbb/lib.a(create_icmp_socket.o)
                              networking/lib.a(ping.o) (create_icmp_socket)
libbb/lib.a(crypt_make_salt.o)
                              loginutils/lib.a(chpasswd.o) (crypt_make_salt)
libbb/lib.a(device_open.o)    sysklogd/lib.a(syslogd_and_logger.o) (device_open)
libbb/lib.a(die_if_bad_username.o)
                              loginutils/lib.a(addgroup.o) (die_if_bad_username)
libbb/lib.a(fclose_nonstdin.o)
                              coreutils/lib.a(head.o) (fclose_if_not_stdin)
libbb/lib.a(fflush_stdout_and_exit.o)
                              networking/lib.a(route.o) (fflush_stdout_and_exit)
libbb/lib.a(find_pid_by_name.o)
                              procps/lib.a(kill.o) (find_pid_by_name)
libbb/lib.a(get_line_from_file.o)
                              editors/lib.a(sed.o) (bb_get_chunk_from_file)
libbb/lib.a(getopt32.o)       coreutils/lib.a(cat.o) (bb_argv_dash)
libbb/lib.a(getpty.o)         networking/lib.a(telnetd.o) (xgetpty)
libbb/lib.a(herror_msg_and_die.o)
                              networking/lib.a(arp.o) (bb_herror_msg_and_die)
libbb/lib.a(inet_common.o)    networking/lib.a(interface.o) (INET_resolve)
libbb/lib.a(info_msg.o)       loginutils/lib.a(chpasswd.o) (bb_info_msg)
libbb/lib.a(inode_hash.o)     libbb/lib.a(copy_file.o) (is_in_ino_dev_hashtable)
libbb/lib.a(lineedit.o)       shell/lib.a(ash.o) (read_line_input)
libbb/lib.a(lineedit_ptr_hack.o)
                              libbb/lib.a(lineedit.o) (lineedit_ptr_to_statics)
libbb/lib.a(llist.o)          findutils/lib.a(grep.o) (llist_add_to)
libbb/lib.a(login.o)          loginutils/lib.a(getty.o) (print_login_issue)
libbb/lib.a(make_directory.o)
                              coreutils/lib.a(mkdir.o) (bb_make_directory)
libbb/lib.a(makedev.o)        util-linux/lib.a(mdev.o) (bb_makedev)
libbb/lib.a(match_fstype.o)   util-linux/lib.a(mount.o) (match_fstype)
libbb/lib.a(mode_string.o)    coreutils/lib.a(ls.o) (bb_mode_string)
libbb/lib.a(mtab_file.o)      util-linux/lib.a(mount.o) (bb_path_mtab_file)
libbb/lib.a(parse_config.o)   loginutils/lib.a(login.o) (config_open2)
libbb/lib.a(parse_mode.o)     shell/lib.a(ash.o) (bb_parse_mode)
libbb/lib.a(perror_nomsg_and_die.o)
                              loginutils/lib.a(adduser.o) (bb_perror_nomsg_and_die)
libbb/lib.a(pidfile.o)        networking/udhcp_multi/lib.a(dhcpc.o) (write_pidfile)
libbb/lib.a(print_flags.o)    networking/lib.a(arp.o) (print_flags_separated)
libbb/lib.a(process_escape_sequence.o)
                              loginutils/lib.a(getty.o) (bb_process_escape_sequence)
libbb/lib.a(procps.o)         procps/lib.a(ps.o) (get_cached_username)
libbb/lib.a(pw_encrypt.o)     loginutils/lib.a(chpasswd.o) (pw_encrypt)
libbb/lib.a(recursive_action.o)
                              util-linux/lib.a(mdev.o) (recursive_action)
libbb/lib.a(remove_file.o)    coreutils/lib.a(mv.o) (remove_file)
libbb/lib.a(run_shell.o)      loginutils/lib.a(login.o) (run_shell)
libbb/lib.a(safe_gethostname.o)
                              networking/lib.a(hostname.o) (safe_gethostname)
libbb/lib.a(safe_strncpy.o)   loginutils/lib.a(login.o) (safe_strncpy)
libbb/lib.a(setup_environment.o)
                              loginutils/lib.a(login.o) (setup_environment)
libbb/lib.a(signals.o)        shell/lib.a(ash.o) (sigaction_set)
libbb/lib.a(simplify_path.o)  util-linux/lib.a(mount.o) (bb_simplify_path)
libbb/lib.a(speed_table.o)    loginutils/lib.a(getty.o) (tty_value_to_baud)
libbb/lib.a(str_tolower.o)    networking/lib.a(wget.o) (str_tolower)
libbb/lib.a(time.o)           networking/lib.a(arping.o) (monotonic_us)
libbb/lib.a(u_signal_names.o)
                              procps/lib.a(kill.o) (get_signum)
libbb/lib.a(update_passwd.o)  loginutils/lib.a(chpasswd.o) (update_passwd)
libbb/lib.a(uuencode.o)       networking/lib.a(wget.o) (bb_uuenc_tbl_base64)
libbb/lib.a(vfork_daemon_rexec.o)
                              networking/udhcp_multi/lib.a(script.o) (safe_waitpid)
libbb/lib.a(warn_ignoring_args.o)
                              coreutils/lib.a(sync.o) (bb_warn_ignoring_args)
libbb/lib.a(wfopen_input.o)   coreutils/lib.a(head.o) (fopen_or_warn_stdin)
libbb/lib.a(write.o)          util-linux/lib.a(mdev.o) (xopen_xwrite_close)
libbb/lib.a(xatonum.o)        coreutils/lib.a(nice.o) (xatol_range)
libbb/lib.a(xconnect.o)       networking/lib.a(tftp.o) (setsockopt_reuseaddr)
libbb/lib.a(xgetcwd.o)        coreutils/lib.a(pwd.o) (xrealloc_getcwd_or_warn)
libbb/lib.a(xgethostbyname.o)
                              networking/lib.a(hostname.o) (xgethostbyname)
libbb/lib.a(xreadlink.o)      sysklogd/lib.a(syslogd_and_logger.o) (xmalloc_follow_symlinks)
libbb/lib.a(xrealloc_vector.o)
                              coreutils/lib.a(sort.o) (xrealloc_vector_helper)
libbb/lib.a(xregcomp.o)       util-linux/lib.a(mdev.o) (xregcomp)
libbb/lib.a(bb_qsort.o)       libbb/lib.a(lineedit.o) (qsort_string_vector)
libbb/lib.a(concat_subpath_file.o)
                              libbb/lib.a(copy_file.o) (concat_subpath_file)
/opt/buildroot-gcc342/bin/../lib/gcc/mipsel-linux-uclibc/3.4.2/libgcc.a(_divdi3.o)
                              util-linux/lib.a(fdisk.o) (__divdi3)
/opt/buildroot-gcc342/bin/../lib/gcc/mipsel-linux-uclibc/3.4.2/libgcc.a(_udivdi3.o)
                              networking/lib.a(brctl.o) (__udivdi3)
/opt/buildroot-gcc342/bin/../lib/gcc/mipsel-linux-uclibc/3.4.2/libgcc.a(_umoddi3.o)
                              util-linux/lib.a(fdisk.o) (__umoddi3)
/opt/buildroot-gcc342/bin/../lib/gcc/mipsel-linux-uclibc/3.4.2/libgcc.a(_clz.o)
                              /opt/buildroot-gcc342/bin/../lib/gcc/mipsel-linux-uclibc/3.4.2/libgcc.a(_divdi3.o) (__clz_tab)

Memory Configuration

Name             Origin             Length             Attributes
*default*        0x0000000000000000 0xffffffffffffffff

Linker script and memory map

LOAD /opt/buildroot-gcc342/bin/../lib/gcc/mipsel-linux-uclibc/3.4.2/../../../../mipsel-linux-uclibc/lib/crt1.o
LOAD /opt/buildroot-gcc342/bin/../lib/gcc/mipsel-linux-uclibc/3.4.2/../../../../mipsel-linux-uclibc/lib/crti.o
LOAD /opt/buildroot-gcc342/bin/../lib/gcc/mipsel-linux-uclibc/3.4.2/crtbegin.o
START GROUP
LOAD applets/built-in.o
LOAD archival/lib.a
LOAD archival/libunarchive/lib.a
LOAD console-tools/lib.a
LOAD coreutils/lib.a
LOAD coreutils/libcoreutils/lib.a
LOAD debianutils/lib.a
LOAD e2fsprogs/lib.a
LOAD editors/lib.a
LOAD findutils/lib.a
LOAD init/lib.a
LOAD libbb/lib.a
LOAD libpwdgrp/lib.a
LOAD loginutils/lib.a
LOAD miscutils/lib.a
LOAD modutils/lib.a
LOAD networking/lib.a
LOAD networking/udhcp_multi/lib.a
LOAD networking/libiproute/lib.a
LOAD printutils/lib.a
LOAD procps/lib.a
LOAD runit/lib.a
LOAD selinux/lib.a
LOAD shell/lib.a
LOAD sysklogd/lib.a
LOAD util-linux/lib.a
LOAD util-linux/volume_id/lib.a
LOAD archival/built-in.o
LOAD archival/libunarchive/built-in.o
LOAD console-tools/built-in.o
LOAD coreutils/built-in.o
LOAD coreutils/libcoreutils/built-in.o
LOAD debianutils/built-in.o
LOAD e2fsprogs/built-in.o
LOAD editors/built-in.o
LOAD findutils/built-in.o
LOAD init/built-in.o
LOAD libbb/built-in.o
LOAD libpwdgrp/built-in.o
LOAD loginutils/built-in.o
LOAD miscutils/built-in.o
LOAD modutils/built-in.o
LOAD networking/built-in.o
LOAD networking/udhcp_multi/built-in.o
LOAD networking/libiproute/built-in.o
LOAD printutils/built-in.o
LOAD procps/built-in.o
LOAD runit/built-in.o
LOAD selinux/built-in.o
LOAD shell/built-in.o
LOAD sysklogd/built-in.o
LOAD util-linux/built-in.o
LOAD util-linux/volume_id/built-in.o
END GROUP
START GROUP
LOAD /data3/wu.xiaoyu/BR_SOHO_189_GIT/MSG-WR201_CMCC/source/lib/lib/libconfig.so
LOAD /data3/wu.xiaoyu/BR_SOHO_189_GIT/MSG-WR201_CMCC/source/lib/lib/libcrypt.so
END GROUP
LOAD /opt/buildroot-gcc342/bin/../lib/gcc/mipsel-linux-uclibc/3.4.2/libgcc.a
LOAD /data3/wu.xiaoyu/BR_SOHO_189_GIT/MSG-WR201_CMCC/source/lib/lib/libc.so
LOAD /opt/buildroot-gcc342/bin/../lib/gcc/mipsel-linux-uclibc/3.4.2/libgcc.a
LOAD /opt/buildroot-gcc342/bin/../lib/gcc/mipsel-linux-uclibc/3.4.2/crtend.o
LOAD /opt/buildroot-gcc342/bin/../lib/gcc/mipsel-linux-uclibc/3.4.2/../../../../mipsel-linux-uclibc/lib/crtn.o
                0x0000000000400000                PROVIDE (__executable_start, 0x400000)
                0x00000000004000d4                . = (0x400000 + SIZEOF_HEADERS)

.interp         0x00000000004000d4       0x14
 *(SORT(.interp))
 .interp        0x00000000004000d4       0x14 /opt/buildroot-gcc342/bin/../lib/gcc/mipsel-linux-uclibc/3.4.2/../../../../mipsel-linux-uclibc/lib/crt1.o

.reginfo
 *(SORT(.reginfo))

.dynamic        0x00000000004000e8       0xe8
 *(SORT(.dynamic))
 .dynamic       0x00000000004000e8       0xe8 /opt/buildroot-gcc342/bin/../lib/gcc/mipsel-linux-uclibc/3.4.2/../../../../mipsel-linux-uclibc/lib/crt1.o
                0x00000000004000e8                _DYNAMIC

.hash           0x00000000004001d0     0x12e0
 *(SORT(.hash))
 .hash          0x00000000004001d0     0x12e0 /opt/buildroot-gcc342/bin/../lib/gcc/mipsel-linux-uclibc/3.4.2/../../../../mipsel-linux-uclibc/lib/crt1.o

.dynsym         0x00000000004014b0     0x2ad0
 *(SORT(.dynsym))
 .dynsym        0x00000000004014b0     0x2ad0 /opt/buildroot-gcc342/bin/../lib/gcc/mipsel-linux-uclibc/3.4.2/../../../../mipsel-linux-uclibc/lib/crt1.o

.dynstr         0x0000000000403f80     0x1d6b
 *(SORT(.dynstr))
 .dynstr        0x0000000000403f80     0x1d6b /opt/buildroot-gcc342/bin/../lib/gcc/mipsel-linux-uclibc/3.4.2/../../../../mipsel-linux-uclibc/lib/crt1.o

.gnu.version    0x0000000000405cec        0x0
 *(SORT(.gnu.version))

.gnu.version_d  0x0000000000405cec        0x0
 *(SORT(.gnu.version_d))

.gnu.version_r  0x0000000000405cec        0x0
 *(SORT(.gnu.version_r))

.rel.dyn        0x0000000000405cec        0x0
 *(SORT(.rel.init))
 *(SORT(.rel.text) .rel.text.* .rel.gnu.linkonce.t.*)
 *(SORT(.rel.fini))
 *(SORT(.rel.rodata) .rel.rodata.* .rel.gnu.linkonce.r.*)
 *(SORT(.rel.data.rel.ro*) .rel.gnu.linkonce.d.rel.ro.*)
 *(SORT(.rel.data) .rel.data.* .rel.gnu.linkonce.d.*)
 *(SORT(.rel.tdata) .rel.tdata.* .rel.gnu.linkonce.td.*)
 *(SORT(.rel.tbss) .rel.tbss.* .rel.gnu.linkonce.tb.*)
 *(SORT(.rel.ctors))
 *(SORT(.rel.dtors))
 *(SORT(.rel.got))
 *(SORT(.rel.sdata) .rel.sdata.* .rel.gnu.linkonce.s.*)
 *(SORT(.rel.sbss) .rel.sbss.* .rel.gnu.linkonce.sb.*)
 *(SORT(.rel.sdata2) .rel.sdata2.* .rel.gnu.linkonce.s2.*)
 *(SORT(.rel.sbss2) .rel.sbss2.* .rel.gnu.linkonce.sb2.*)
 *(SORT(.rel.bss) .rel.bss.* .rel.gnu.linkonce.b.*)

.rela.dyn
 *(SORT(.rela.init))
 *(SORT(.rela.text) .rela.text.* .rela.gnu.linkonce.t.*)
 *(SORT(.rela.fini))
 *(SORT(.rela.rodata) .rela.rodata.* .rela.gnu.linkonce.r.*)
 *(SORT(.rela.data) .rela.data.* .rela.gnu.linkonce.d.*)
 *(SORT(.rela.tdata) .rela.tdata.* .rela.gnu.linkonce.td.*)
 *(SORT(.rela.tbss) .rela.tbss.* .rela.gnu.linkonce.tb.*)
 *(SORT(.rela.ctors))
 *(SORT(.rela.dtors))
 *(SORT(.rela.got))
 *(SORT(.rela.sdata) .rela.sdata.* .rela.gnu.linkonce.s.*)
 *(SORT(.rela.sbss) .rela.sbss.* .rela.gnu.linkonce.sb.*)
 *(SORT(.rela.sdata2) .rela.sdata2.* .rela.gnu.linkonce.s2.*)
 *(SORT(.rela.sbss2) .rela.sbss2.* .rela.gnu.linkonce.sb2.*)
 *(SORT(.rela.bss) .rela.bss.* .rela.gnu.linkonce.b.*)

.rel.plt
 *(SORT(.rel.plt))

.rela.plt
 *(SORT(.rela.plt))

.init           0x0000000000405cec       0x88
 *(SORT(.init))
 .init          0x0000000000405cec       0x1c /opt/buildroot-gcc342/bin/../lib/gcc/mipsel-linux-uclibc/3.4.2/../../../../mipsel-linux-uclibc/lib/crti.o
                0x0000000000405cec                _init
 .init          0x0000000000405d08        0xc /opt/buildroot-gcc342/bin/../lib/gcc/mipsel-linux-uclibc/3.4.2/../../../../mipsel-linux-uclibc/lib/crtn.o
 .init          0x0000000000405d14       0x30 /opt/buildroot-gcc342/bin/../lib/gcc/mipsel-linux-uclibc/3.4.2/crtbegin.o
 .init          0x0000000000405d44       0x30 /opt/buildroot-gcc342/bin/../lib/gcc/mipsel-linux-uclibc/3.4.2/crtend.o

.plt
 *(SORT(.plt))

.text           0x0000000000405d80    0x58504
                0x0000000000405d80                _ftext = .
 *(SORT(.text) .stub .text.* .gnu.linkonce.t.*)
 .text          0x0000000000405d80       0x60 /opt/buildroot-gcc342/bin/../lib/gcc/mipsel-linux-uclibc/3.4.2/../../../../mipsel-linux-uclibc/lib/crt1.o
                0x0000000000405d80                __start
 .text          0x0000000000405de0      0x180 /opt/buildroot-gcc342/bin/../lib/gcc/mipsel-linux-uclibc/3.4.2/crtbegin.o
 .text          0x0000000000405f60      0x6a0 /opt/buildroot-gcc342/bin/../lib/gcc/mipsel-linux-uclibc/3.4.2/libgcc.a(_divdi3.o)
                0x0000000000405f60                __divdi3
 .text          0x0000000000406600      0x650 /opt/buildroot-gcc342/bin/../lib/gcc/mipsel-linux-uclibc/3.4.2/libgcc.a(_udivdi3.o)
                0x0000000000406600                __udivdi3
 .text          0x0000000000406c50      0x5e0 /opt/buildroot-gcc342/bin/../lib/gcc/mipsel-linux-uclibc/3.4.2/libgcc.a(_umoddi3.o)
                0x0000000000406c50                __umoddi3
 .text          0x0000000000407230       0x80 /opt/buildroot-gcc342/bin/../lib/gcc/mipsel-linux-uclibc/3.4.2/crtend.o
 .text.full_write2_str
                0x00000000004072b0       0x50 libbb/lib.a(appletlib.o)
 .text.applet_name_compare
                0x0000000000407300       0x34 libbb/lib.a(appletlib.o)
 .text.find_applet_by_name
                0x0000000000407334       0x64 libbb/lib.a(appletlib.o)
                0x0000000000407334                find_applet_by_name
 .text.bb_show_usage
                0x0000000000407398      0x128 libbb/lib.a(appletlib.o)
                0x0000000000407398                bb_show_usage
 .text.lbb_prepare
                0x00000000004074c0       0x58 libbb/lib.a(appletlib.o)
                0x00000000004074c0                lbb_prepare
 .text.get_trimmed_slice
                0x0000000000407518       0x74 libbb/lib.a(appletlib.o)
 .text.run_applet_no_and_exit
                0x000000000040758c      0x364 libbb/lib.a(appletlib.o)
                0x000000000040758c                run_applet_no_and_exit
 .text.run_applet_and_exit
                0x00000000004078f0      0x2b0 libbb/lib.a(appletlib.o)
                0x00000000004078f0                run_applet_and_exit
 .text.main     0x0000000000407ba0      0x5dc libbb/lib.a(appletlib.o)
                0x0000000000407ba0                main
 .text.bb_basename
                0x000000000040817c       0x50 libbb/lib.a(bb_basename.o)
                0x000000000040817c                bb_basename
 .text.ret_ERANGE
                0x00000000004081cc       0x28 libbb/lib.a(bb_strtonum.o)
 .text.handle_errors
                0x00000000004081f4       0xb8 libbb/lib.a(bb_strtonum.o)
 .text.bb_strtoul
                0x00000000004082ac       0xcc libbb/lib.a(bb_strtonum.o)
                0x00000000004082ac                bb_strtoul
 .text.bb_strtol
                0x0000000000408378       0xe0 libbb/lib.a(bb_strtonum.o)
                0x0000000000408378                bb_strtol
 .text.bb_error_msg_and_die
                0x0000000000408458       0x4c libbb/lib.a(error_msg_and_die.o)
                0x0000000000408458                bb_error_msg_and_die
 .text.full_write
                0x00000000004084a4       0x9c libbb/lib.a(full_write.o)
                0x00000000004084a4                full_write
 .text.bb_get_last_path_component_nostrip
                0x0000000000408540       0x6c libbb/lib.a(get_last_path_component.o)
                0x0000000000408540                bb_get_last_path_component_nostrip
 .text.bb_get_last_path_component_strip
                0x00000000004085ac       0x88 libbb/lib.a(get_last_path_component.o)
                0x00000000004085ac                bb_get_last_path_component_strip
 .text.last_char_is
                0x0000000000408634       0x78 libbb/lib.a(last_char_is.o)
                0x0000000000408634                last_char_is
 .text.bb_perror_msg_and_die
                0x00000000004086ac       0x80 libbb/lib.a(perror_msg_and_die.o)
                0x00000000004086ac                bb_perror_msg_and_die
 .text.bb_simple_perror_msg_and_die
                0x000000000040872c       0x30 libbb/lib.a(perror_msg_and_die.o)
                0x000000000040872c                bb_simple_perror_msg_and_die
 .text.safe_write
                0x000000000040875c       0x88 libbb/lib.a(safe_write.o)
                0x000000000040875c                safe_write
 .text.skip_whitespace
                0x00000000004087e4       0x54 libbb/lib.a(skip_whitespace.o)
                0x00000000004087e4                skip_whitespace
 .text.skip_non_whitespace
                0x0000000000408838       0x60 libbb/lib.a(skip_whitespace.o)
                0x0000000000408838                skip_non_whitespace
 .text.bb_verror_msg
                0x0000000000408898      0x294 libbb/lib.a(verror_msg.o)
                0x0000000000408898                bb_verror_msg
 .text.fopen_or_warn
                0x0000000000408b2c       0x80 libbb/lib.a(wfopen.o)
                0x0000000000408b2c                fopen_or_warn
 .text.fopen_for_read
                0x0000000000408bac       0x20 libbb/lib.a(wfopen.o)
                0x0000000000408bac                fopen_for_read
 .text.xfopen_for_read
                0x0000000000408bcc       0x20 libbb/lib.a(wfopen.o)
                0x0000000000408bcc                xfopen_for_read
 .text.xfopen_for_write
                0x0000000000408bec       0x20 libbb/lib.a(wfopen.o)
                0x0000000000408bec                xfopen_for_write
 .text.xfunc_die
                0x0000000000408c0c       0x5c libbb/lib.a(xfunc_die.o)
                0x0000000000408c0c                xfunc_die
 .text.ndelay_on
                0x0000000000408c68       0x50 libbb/lib.a(xfuncs.o)
                0x0000000000408c68                ndelay_on
 .text.ndelay_off
                0x0000000000408cb8       0x54 libbb/lib.a(xfuncs.o)
                0x0000000000408cb8                ndelay_off
 .text.close_on_exec_on
                0x0000000000408d0c       0x1c libbb/lib.a(xfuncs.o)
                0x0000000000408d0c                close_on_exec_on
 .text.smart_ulltoa5
                0x0000000000408d28      0x34c libbb/lib.a(xfuncs.o)
                0x0000000000408d28                smart_ulltoa5
 .text.utoa_to_buf
                0x0000000000409074       0x8c libbb/lib.a(xfuncs.o)
                0x0000000000409074                utoa_to_buf
 .text.itoa_to_buf
                0x0000000000409100       0x38 libbb/lib.a(xfuncs.o)
                0x0000000000409100                itoa_to_buf
 .text.utoa     0x0000000000409138       0x4c libbb/lib.a(xfuncs.o)
                0x0000000000409138                utoa
 .text.itoa     0x0000000000409184       0x4c libbb/lib.a(xfuncs.o)
                0x0000000000409184                itoa
 .text.get_terminal_width_height
                0x00000000004091d0      0x160 libbb/lib.a(xfuncs.o)
                0x00000000004091d0                get_terminal_width_height
 .text.xmalloc  0x0000000000409330       0x60 libbb/lib.a(xfuncs_printf.o)
                0x0000000000409330                xmalloc
 .text.xrealloc
                0x0000000000409390       0x60 libbb/lib.a(xfuncs_printf.o)
                0x0000000000409390                xrealloc
 .text.xzalloc  0x00000000004093f0       0x68 libbb/lib.a(xfuncs_printf.o)
                0x00000000004093f0                xzalloc
 .text.xstrdup  0x0000000000409458       0x58 libbb/lib.a(xfuncs_printf.o)
                0x0000000000409458                xstrdup
 .text.xstrndup
                0x00000000004094b0       0x90 libbb/lib.a(xfuncs_printf.o)
                0x00000000004094b0                xstrndup
 .text.xfopen   0x0000000000409540       0x5c libbb/lib.a(xfuncs_printf.o)
                0x0000000000409540                xfopen
 .text.xopen3   0x000000000040959c       0x5c libbb/lib.a(xfuncs_printf.o)
                0x000000000040959c                xopen3
 .text.xopen    0x00000000004095f8       0x1c libbb/lib.a(xfuncs_printf.o)
                0x00000000004095f8                xopen
 .text.open3_or_warn
                0x0000000000409614       0x70 libbb/lib.a(xfuncs_printf.o)
                0x0000000000409614                open3_or_warn
 .text.open_or_warn
                0x0000000000409684       0x1c libbb/lib.a(xfuncs_printf.o)
                0x0000000000409684                open_or_warn
 .text.xrename  0x00000000004096a0       0x64 libbb/lib.a(xfuncs_printf.o)
                0x00000000004096a0                xrename
 .text.xpipe    0x0000000000409704       0x58 libbb/lib.a(xfuncs_printf.o)
                0x0000000000409704                xpipe
 .text.xdup2    0x000000000040975c       0x5c libbb/lib.a(xfuncs_printf.o)
                0x000000000040975c                xdup2
 .text.xmove_fd
                0x00000000004097b8       0x5c libbb/lib.a(xfuncs_printf.o)
                0x00000000004097b8                xmove_fd
 .text.xwrite   0x0000000000409814       0x60 libbb/lib.a(xfuncs_printf.o)
                0x0000000000409814                xwrite
 .text.xlseek   0x0000000000409874       0x78 libbb/lib.a(xfuncs_printf.o)
                0x0000000000409874                xlseek
 .text.die_if_ferror
                0x00000000004098ec       0x5c libbb/lib.a(xfuncs_printf.o)
                0x00000000004098ec                die_if_ferror
 .text.die_if_ferror_stdout
                0x0000000000409948       0x24 libbb/lib.a(xfuncs_printf.o)
                0x0000000000409948                die_if_ferror_stdout
 .text.bb_putchar
                0x000000000040996c       0x80 libbb/lib.a(xfuncs_printf.o)
                0x000000000040996c                bb_putchar
 .text.xprint_and_close_file
                0x00000000004099ec       0x98 libbb/lib.a(xfuncs_printf.o)
                0x00000000004099ec                xprint_and_close_file
 .text.xasprintf
                0x0000000000409a84       0x68 libbb/lib.a(xfuncs_printf.o)
                0x0000000000409a84                xasprintf
 .text.xsetenv  0x0000000000409aec       0x54 libbb/lib.a(xfuncs_printf.o)
                0x0000000000409aec                xsetenv
 .text.xsetgid  0x0000000000409b40       0x58 libbb/lib.a(xfuncs_printf.o)
                0x0000000000409b40                xsetgid
 .text.xsetuid  0x0000000000409b98       0x58 libbb/lib.a(xfuncs_printf.o)
                0x0000000000409b98                xsetuid
 .text.xchdir   0x0000000000409bf0       0x5c libbb/lib.a(xfuncs_printf.o)
                0x0000000000409bf0                xchdir
 .text.warn_opendir
                0x0000000000409c4c       0x70 libbb/lib.a(xfuncs_printf.o)
                0x0000000000409c4c                warn_opendir
 .text.xopendir
                0x0000000000409cbc       0x5c libbb/lib.a(xfuncs_printf.o)
                0x0000000000409cbc                xopendir
 .text.xsocket  0x0000000000409d18       0x58 libbb/lib.a(xfuncs_printf.o)
                0x0000000000409d18                xsocket
 .text.xbind    0x0000000000409d70       0x58 libbb/lib.a(xfuncs_printf.o)
                0x0000000000409d70                xbind
 .text.xlisten  0x0000000000409dc8       0x58 libbb/lib.a(xfuncs_printf.o)
                0x0000000000409dc8                xlisten
 .text.xsendto  0x0000000000409e20       0x60 libbb/lib.a(xfuncs_printf.o)
                0x0000000000409e20                xsendto
 .text.xstat    0x0000000000409e80       0x5c libbb/lib.a(xfuncs_printf.o)
                0x0000000000409e80                xstat
 .text.ioctl_or_perror_and_die
                0x0000000000409edc       0x94 libbb/lib.a(xfuncs_printf.o)
                0x0000000000409edc                ioctl_or_perror_and_die
 .text.ioctl_or_perror
                0x0000000000409f70       0x94 libbb/lib.a(xfuncs_printf.o)
                0x0000000000409f70                ioctl_or_perror
 .text.bb_ioctl_or_warn
                0x000000000040a004       0x70 libbb/lib.a(xfuncs_printf.o)
                0x000000000040a004                bb_ioctl_or_warn
 .text.bb_xioctl
                0x000000000040a074       0x5c libbb/lib.a(xfuncs_printf.o)
                0x000000000040a074                bb_xioctl
 .text.bb_full_fd_action
                0x000000000040a0d0      0x140 libbb/lib.a(copyfd.o)
 .text.bb_copyfd_eof
                0x000000000040a210       0x20 libbb/lib.a(copyfd.o)
                0x000000000040a210                bb_copyfd_eof
 .text.bb_error_msg
                0x000000000040a230       0x48 libbb/lib.a(error_msg.o)
                0x000000000040a230                bb_error_msg
 .text.bb_perror_msg
                0x000000000040a278       0x7c libbb/lib.a(perror_msg.o)
                0x000000000040a278                bb_perror_msg
 .text.bb_simple_perror_msg
                0x000000000040a2f4       0x24 libbb/lib.a(perror_msg.o)
                0x000000000040a2f4                bb_simple_perror_msg
 .text.dbck     0x000000000040a318       0x10 libbb/lib.a(perror_msg.o)
                0x000000000040a318                dbck
 .text.safe_read
                0x000000000040a328       0x88 libbb/lib.a(read.o)
                0x000000000040a328                safe_read
 .text.nonblock_safe_read
                0x000000000040a3b0       0xb4 libbb/lib.a(read.o)
                0x000000000040a3b0                nonblock_safe_read
 .text.full_read
                0x000000000040a464       0xa4 libbb/lib.a(read.o)
                0x000000000040a464                full_read
 .text.read_close
                0x000000000040a508       0x64 libbb/lib.a(read.o)
                0x000000000040a508                read_close
 .text.open_read_close
                0x000000000040a56c       0x74 libbb/lib.a(read.o)
                0x000000000040a56c                open_read_close
 .text.xmalloc_read
                0x000000000040a5e0      0x170 libbb/lib.a(read.o)
                0x000000000040a5e0                xmalloc_read
 .text.xmalloc_open_read_close
                0x000000000040a750       0x88 libbb/lib.a(read.o)
                0x000000000040a750                xmalloc_open_read_close
 .text.xmalloc_xopen_read_close
                0x000000000040a7d8       0x5c libbb/lib.a(read.o)
                0x000000000040a7d8                xmalloc_xopen_read_close
 .text.safe_poll
                0x000000000040a834       0xbc libbb/lib.a(safe_poll.o)
                0x000000000040a834                safe_poll
 .text.addgroup_main
                0x000000000040a8f0      0x408 loginutils/lib.a(addgroup.o)
                0x000000000040a8f0                addgroup_main
 .text.adduser_main
                0x000000000040acf8      0x414 loginutils/lib.a(adduser.o)
                0x000000000040acf8                adduser_main
 .text.chpasswd_main
                0x000000000040b10c      0x224 loginutils/lib.a(chpasswd.o)
                0x000000000040b10c                chpasswd_main
 .text.del_line_matching
                0x000000000040b330      0x338 loginutils/lib.a(deluser.o)
 .text.deluser_main
                0x000000000040b668      0x104 loginutils/lib.a(deluser.o)
                0x000000000040b668                deluser_main
 .text.bcode    0x000000000040b76c       0x58 loginutils/lib.a(getty.o)
 .text.getty_main
                0x000000000040b7c4      0xc3c loginutils/lib.a(getty.o)
                0x000000000040b7c4                getty_main
 .text.alarm_handler
                0x000000000040c400       0x90 loginutils/lib.a(login.o)
 .text.login_main
                0x000000000040c490      0x7f0 loginutils/lib.a(login.o)
                0x000000000040c490                login_main
 .text.nuke_str
                0x000000000040cc80       0x64 loginutils/lib.a(passwd.o)
 .text.passwd_main
                0x000000000040cce4      0x5d4 loginutils/lib.a(passwd.o)
                0x000000000040cce4                passwd_main
 .text.crondlog
                0x000000000040d2b8       0xd0 miscutils/lib.a(crond.o)
 .text.safe_setenv4
                0x000000000040d388       0xb0 miscutils/lib.a(crond.o)
 .text.ParseField
                0x000000000040d438      0x2b8 miscutils/lib.a(crond.o)
 .text.DeleteFile
                0x000000000040d6f0      0x144 miscutils/lib.a(crond.o)
 .text.SynchronizeFile
                0x000000000040d834      0x3a4 miscutils/lib.a(crond.o)
 .text.SynchronizeDir
                0x000000000040dbd8      0x1b8 miscutils/lib.a(crond.o)
 .text.RunJob   0x000000000040dd90      0x21c miscutils/lib.a(crond.o)
 .text.crond_main
                0x000000000040dfac      0x5f4 miscutils/lib.a(crond.o)
                0x000000000040dfac                crond_main
 .text.eject_main
                0x000000000040e5a0      0x12c miscutils/lib.a(eject.o)
                0x000000000040e5a0                eject_main
 .text.insmod_main
                0x000000000040e6cc      0x21c modutils/lib.a(insmod.o)
                0x000000000040e6cc                insmod_main
 .text.lsmod_main
                0x000000000040e8e8      0x284 modutils/lib.a(lsmod.o)
                0x000000000040e8e8                lsmod_main
 .text.rmmod_main
                0x000000000040eb6c      0x200 modutils/lib.a(rmmod.o)
                0x000000000040eb6c                rmmod_main
 .text.arp_main
                0x000000000040ed6c      0xd70 networking/lib.a(arp.o)
                0x000000000040ed6c                arp_main
 .text.finish   0x000000000040fadc       0xec networking/lib.a(arping.o)
 .text.catcher  0x000000000040fbc8      0x29c networking/lib.a(arping.o)
 .text.arping_main
                0x000000000040fe64      0xc14 networking/lib.a(arping.o)
                0x000000000040fe64                arping_main
 .text.arm_ioctl
                0x0000000000410a78       0x14 networking/lib.a(brctl.o)
 .text.brctl_main
                0x0000000000410a8c      0x740 networking/lib.a(brctl.o)
                0x0000000000410a8c                brctl_main
 .text.ftp_die  0x00000000004111cc       0x88 networking/lib.a(ftpgetput.o)
 .text.ftpcmd   0x0000000000411254      0x148 networking/lib.a(ftpgetput.o)
 .text.ftpgetput_main
                0x000000000041139c      0x550 networking/lib.a(ftpgetput.o)
                0x000000000041139c                ftpgetput_main
 .text.do_sethostname
                0x00000000004118ec      0x124 networking/lib.a(hostname.o)
 .text.hostname_main
                0x0000000000411a10      0x208 networking/lib.a(hostname.o)
                0x0000000000411a10                hostname_main
 .text.ifconfig_main
                0x0000000000411c18      0x568 networking/lib.a(ifconfig.o)
                0x0000000000411c18                ifconfig_main
 .text.INET_sprint
                0x0000000000412180       0x9c networking/lib.a(interface.o)
 .text.INET_input
                0x000000000041221c       0x1c networking/lib.a(interface.o)
 .text.UNSPEC_print
                0x0000000000412238       0xb0 networking/lib.a(interface.o)
 .text.UNSPEC_sprint
                0x00000000004122e8       0x44 networking/lib.a(interface.o)
 .text.get_aftype
                0x000000000041232c       0x90 networking/lib.a(interface.o)
                0x000000000041232c                get_aftype
 .text.get_afntype
                0x00000000004123bc       0x5c networking/lib.a(interface.o)
 .text.add_interface
                0x0000000000412418      0x100 networking/lib.a(interface.o)
 .text.if_readconf
                0x0000000000412518      0x14c networking/lib.a(interface.o)
 .text.if_readlist_proc
                0x0000000000412664      0x3bc networking/lib.a(interface.o)
 .text.do_if_fetch
                0x0000000000412a20      0x4c0 networking/lib.a(interface.o)
 .text.ether_print
                0x0000000000412ee0       0x8c networking/lib.a(interface.o)
 .text.hexchar2int
                0x0000000000412f6c       0x34 networking/lib.a(interface.o)
 .text.ether_input
                0x0000000000412fa0      0x140 networking/lib.a(interface.o)
 .text.get_hwtype
                0x00000000004130e0       0x90 networking/lib.a(interface.o)
                0x00000000004130e0                get_hwtype
 .text.get_hwntype
                0x0000000000413170       0x5c networking/lib.a(interface.o)
                0x0000000000413170                get_hwntype
 .text.print_bytes_scaled
                0x00000000004131cc       0xbc networking/lib.a(interface.o)
 .text.ife_print
                0x0000000000413288      0x67c networking/lib.a(interface.o)
 .text.display_interfaces
                0x0000000000413904      0x1ac networking/lib.a(interface.o)
                0x0000000000413904                display_interfaces
 .text.print_stats_and_exit
                0x0000000000413ab0      0x22c networking/lib.a(ping.o)
 .text.sendping4
                0x0000000000413cdc      0x298 networking/lib.a(ping.o)
 .text.ping_main
                0x0000000000413f74      0x7ec networking/lib.a(ping.o)
                0x0000000000413f74                ping_main
 .text.kw_lookup
                0x0000000000414760       0xdc networking/lib.a(route.o)
 .text.bb_displayroutes
                0x000000000041483c      0x330 networking/lib.a(route.o)
                0x000000000041483c                bb_displayroutes
 .text.route_main
                0x0000000000414b6c      0x6d4 networking/lib.a(route.o)
                0x0000000000414b6c                route_main
 .text.make_new_session
                0x0000000000415240      0x354 networking/lib.a(telnetd.o)
 .text.free_session
                0x0000000000415594      0x144 networking/lib.a(telnetd.o)
 .text.handle_sigchld
                0x00000000004156d8       0x80 networking/lib.a(telnetd.o)
 .text.telnetd_main
                0x0000000000415758      0x924 networking/lib.a(telnetd.o)
                0x0000000000415758                telnetd_main
 .text.tftp_main
                0x000000000041607c      0x724 networking/lib.a(tftp.o)
                0x000000000041607c                tftp_main
 .text.xfind_str
                0x00000000004167a0       0x88 networking/lib.a(vconfig.o)
 .text.vconfig_main
                0x0000000000416828      0x1d4 networking/lib.a(vconfig.o)
                0x0000000000416828                vconfig_main
 .text.progressmeter
                0x00000000004169fc      0x4f8 networking/lib.a(wget.o)
 .text.safe_fgets
                0x0000000000416ef4       0xc4 networking/lib.a(wget.o)
 .text.base64enc_512
                0x0000000000416fb8       0x7c networking/lib.a(wget.o)
 .text.open_socket
                0x0000000000417034       0x74 networking/lib.a(wget.o)
 .text.ftpcmd   0x00000000004170a8      0x134 networking/lib.a(wget.o)
 .text.parse_url
                0x00000000004171dc      0x224 networking/lib.a(wget.o)
 .text.gethdr   0x0000000000417400      0x1f4 networking/lib.a(wget.o)
 .text.wget_main
                0x00000000004175f4      0xed0 networking/lib.a(wget.o)
                0x00000000004175f4                wget_main
 .text.change_listen_mode
                0x00000000004184c4       0x68 networking/udhcp_multi/lib.a(dhcpc.o)
 .text.perform_release
                0x000000000041852c      0x130 networking/udhcp_multi/lib.a(dhcpc.o)
 .text.client_background
                0x000000000041865c       0x54 networking/udhcp_multi/lib.a(dhcpc.o)
 .text.alloc_dhcp_option
                0x00000000004186b0       0xc4 networking/udhcp_multi/lib.a(dhcpc.o)
 .text.udhcpc_main
                0x0000000000418774      0xe1c networking/udhcp_multi/lib.a(dhcpc.o)
                0x0000000000418774                udhcpc_main
 .text.udhcpd_main
                0x0000000000419590      0xa98 networking/udhcp_multi/lib.a(dhcpd.o)
                0x0000000000419590                udhcpd_main
 .text.read_ip  0x000000000041a028       0x68 networking/udhcp_multi/lib.a(files.o)
 .text.read_str
                0x000000000041a090       0x6c networking/udhcp_multi/lib.a(files.o)
 .text.read_u32
                0x000000000041a0fc       0x58 networking/udhcp_multi/lib.a(files.o)
 .text.read_yn  0x000000000041a154       0x98 networking/udhcp_multi/lib.a(files.o)
 .text.find_option
                0x000000000041a1ec       0x60 networking/udhcp_multi/lib.a(files.o)
                0x000000000041a1ec                find_option
 .text.read_opt
                0x000000000041a24c      0x4e4 networking/udhcp_multi/lib.a(files.o)
 .text.read_staticlease
                0x000000000041a730       0xf8 networking/udhcp_multi/lib.a(files.o)
 .text.read_config
                0x000000000041a828      0x1f4 networking/udhcp_multi/lib.a(files.o)
                0x000000000041a828                read_config
 .text.write_leases
                0x000000000041aa1c      0x4b0 networking/udhcp_multi/lib.a(files.o)
                0x000000000041aa1c                write_leases
 .text.read_leases
                0x000000000041aecc      0x1a4 networking/udhcp_multi/lib.a(files.o)
                0x000000000041aecc                read_leases
 .text.clear_lease
                0x000000000041b070      0x160 networking/udhcp_multi/lib.a(leases.o)
                0x000000000041b070                clear_lease
 .text.add_lease
                0x000000000041b1d0      0x174 networking/udhcp_multi/lib.a(leases.o)
                0x000000000041b1d0                add_lease
 .text.lease_expired
                0x000000000041b344       0x7c networking/udhcp_multi/lib.a(leases.o)
                0x000000000041b344                lease_expired
 .text.find_lease_by_chaddr
                0x000000000041b3c0       0xb8 networking/udhcp_multi/lib.a(leases.o)
                0x000000000041b3c0                find_lease_by_chaddr
 .text.find_lease_by_yiaddr
                0x000000000041b478       0x60 networking/udhcp_multi/lib.a(leases.o)
                0x000000000041b478                find_lease_by_yiaddr
 .text.find_address
                0x000000000041b4d8      0x1c0 networking/udhcp_multi/lib.a(leases.o)
                0x000000000041b4d8                find_address
 .text.udhcp_get_option
                0x000000000041b698      0x164 networking/udhcp_multi/lib.a(options.o)
                0x000000000041b698                udhcp_get_option
 .text.udhcp_end_option
                0x000000000041b7fc       0x5c networking/udhcp_multi/lib.a(options.o)
                0x000000000041b7fc                udhcp_end_option
 .text.udhcp_add_option_string
                0x000000000041b858       0xc8 networking/udhcp_multi/lib.a(options.o)
                0x000000000041b858                udhcp_add_option_string
 .text.udhcp_add_simple_option
                0x000000000041b920       0xb0 networking/udhcp_multi/lib.a(options.o)
                0x000000000041b920                udhcp_add_simple_option
 .text.udhcp_init_header
                0x000000000041b9d0       0xb8 networking/udhcp_multi/lib.a(packet.o)
                0x000000000041b9d0                udhcp_init_header
 .text.udhcp_recv_kernel_packet
                0x000000000041ba88      0x12c networking/udhcp_multi/lib.a(packet.o)
                0x000000000041ba88                udhcp_recv_kernel_packet
 .text.udhcp_recv_kernel_packet_client
                0x000000000041bbb4      0x12c networking/udhcp_multi/lib.a(packet.o)
                0x000000000041bbb4                udhcp_recv_kernel_packet_client
 .text.udhcp_checksum
                0x000000000041bce0       0x70 networking/udhcp_multi/lib.a(packet.o)
                0x000000000041bce0                udhcp_checksum
 .text.udhcp_send_raw_packet
                0x000000000041bd50      0x2b8 networking/udhcp_multi/lib.a(packet.o)
                0x000000000041bd50                udhcp_send_raw_packet
 .text.udhcp_send_kernel_packet
                0x000000000041c008      0x1e8 networking/udhcp_multi/lib.a(packet.o)
                0x000000000041c008                udhcp_send_kernel_packet
 .text.sprintip
                0x000000000041c1f0       0x5c networking/udhcp_multi/lib.a(script.o)
 .text.udhcp_run_script
                0x000000000041c24c      0x870 networking/udhcp_multi/lib.a(script.o)
                0x000000000041c24c                udhcp_run_script
 .text.send_packet
                0x000000000041cabc      0x128 networking/udhcp_multi/lib.a(serverpacket.o)
 .text.init_packet
                0x000000000041cbe4       0xec networking/udhcp_multi/lib.a(serverpacket.o)
 .text.add_bootp_options
                0x000000000041ccd0       0x98 networking/udhcp_multi/lib.a(serverpacket.o)
 .text.send_offer
                0x000000000041cd68      0x400 networking/udhcp_multi/lib.a(serverpacket.o)
                0x000000000041cd68                send_offer
 .text.send_NAK
                0x000000000041d168       0x60 networking/udhcp_multi/lib.a(serverpacket.o)
                0x000000000041d168                send_NAK
 .text.send_ACK
                0x000000000041d1c8      0x254 networking/udhcp_multi/lib.a(serverpacket.o)
                0x000000000041d1c8                send_ACK
 .text.send_inform
                0x000000000041d41c       0xc8 networking/udhcp_multi/lib.a(serverpacket.o)
                0x000000000041d41c                send_inform
 .text.signal_handler
                0x000000000041d4e4       0x68 networking/udhcp_multi/lib.a(signalpipe.o)
 .text.udhcp_sp_setup
                0x000000000041d54c       0xa0 networking/udhcp_multi/lib.a(signalpipe.o)
                0x000000000041d54c                udhcp_sp_setup
 .text.udhcp_sp_fd_set
                0x000000000041d5ec       0xe8 networking/udhcp_multi/lib.a(signalpipe.o)
                0x000000000041d5ec                udhcp_sp_fd_set
 .text.udhcp_sp_read
                0x000000000041d6d4       0x84 networking/udhcp_multi/lib.a(signalpipe.o)
                0x000000000041d6d4                udhcp_sp_read
 .text.udhcp_read_interface
                0x000000000041d758      0x1a0 networking/udhcp_multi/lib.a(socket.o)
                0x000000000041d758                udhcp_read_interface
 .text.udhcp_listen_socket
                0x000000000041d8f8      0x164 networking/udhcp_multi/lib.a(socket.o)
                0x000000000041d8f8                udhcp_listen_socket
 .text.listen_socket_client
                0x000000000041da5c      0x164 networking/udhcp_multi/lib.a(socket.o)
                0x000000000041da5c                listen_socket_client
 .text.addStaticLease
                0x000000000041dbc0       0xa0 networking/udhcp_multi/lib.a(static_leases.o)
                0x000000000041dbc0                addStaticLease
 .text.getIpByMac
                0x000000000041dc60       0x88 networking/udhcp_multi/lib.a(static_leases.o)
                0x000000000041dc60                getIpByMac
 .text.reservedIp
                0x000000000041dce8       0x40 networking/udhcp_multi/lib.a(static_leases.o)
                0x000000000041dce8                reservedIp
 .text.arpping  0x000000000041dd28      0x2d8 networking/udhcp_multi/lib.a(arpping.o)
                0x000000000041dd28                arpping
 .text.random_xid
                0x000000000041e000       0x74 networking/udhcp_multi/lib.a(clientpacket.o)
                0x000000000041e000                random_xid
 .text.init_packet
                0x000000000041e074      0x124 networking/udhcp_multi/lib.a(clientpacket.o)
 .text.add_param_req_option
                0x000000000041e198       0xf8 networking/udhcp_multi/lib.a(clientpacket.o)
 .text.send_discover
                0x000000000041e290       0xe8 networking/udhcp_multi/lib.a(clientpacket.o)
                0x000000000041e290                send_discover
 .text.send_selecting
                0x000000000041e378      0x128 networking/udhcp_multi/lib.a(clientpacket.o)
                0x000000000041e378                send_selecting
 .text.send_renew
                0x000000000041e4a0      0x100 networking/udhcp_multi/lib.a(clientpacket.o)
                0x000000000041e4a0                send_renew
 .text.send_release
                0x000000000041e5a0       0xcc networking/udhcp_multi/lib.a(clientpacket.o)
                0x000000000041e5a0                send_release
 .text.udhcp_recv_raw_packet
                0x000000000041e66c      0x200 networking/udhcp_multi/lib.a(clientpacket.o)
                0x000000000041e66c                udhcp_recv_raw_packet
 .text.raw_socket
                0x000000000041e86c       0xb0 networking/udhcp_multi/lib.a(clientsocket.o)
                0x000000000041e86c                raw_socket
 .text.utt_getSysUpTime
                0x000000000041e91c       0x40 networking/udhcp_multi/lib.a(common.o)
                0x000000000041e91c                utt_getSysUpTime
 .text.free_main
                0x000000000041e95c      0x2c0 procps/lib.a(free.o)
                0x000000000041e95c                free_main
 .text.kill_main
                0x000000000041ec1c      0x44c procps/lib.a(kill.o)
                0x000000000041ec1c                kill_main
 .text.ps_main  0x000000000041f068      0x140 procps/lib.a(ps.o)
                0x000000000041f068                ps_main
 .text.uptime_main
                0x000000000041f1a8      0x224 procps/lib.a(uptime.o)
                0x000000000041f1a8                uptime_main
 .text.raise_exception
                0x000000000041f3cc       0x4c shell/lib.a(ash.o)
 .text.raise_interrupt
                0x000000000041f418       0xbc shell/lib.a(ash.o)
 .text.ignoresig
                0x000000000041f4d4       0x70 shell/lib.a(ash.o)
 .text.onsig    0x000000000041f544       0x88 shell/lib.a(ash.o)
 .text.outstr   0x000000000041f5cc       0xa4 shell/lib.a(ash.o)
 .text.flush_stdout_stderr
                0x000000000041f670       0xc4 shell/lib.a(ash.o)
 .text.flush_stderr
                0x000000000041f734       0xa8 shell/lib.a(ash.o)
 .text.outcslow
                0x000000000041f7dc       0xf8 shell/lib.a(ash.o)
 .text.out1fmt  0x000000000041f8d4       0xa4 shell/lib.a(ash.o)
 .text.fmtstr   0x000000000041f978       0xa4 shell/lib.a(ash.o)
 .text.out1str  0x000000000041fa1c       0x24 shell/lib.a(ash.o)
 .text.out2str  0x000000000041fa40       0x4c shell/lib.a(ash.o)
 .text.freefunc
                0x000000000041fa8c       0x38 shell/lib.a(ash.o)
 .text.ash_vmsg
                0x000000000041fac4      0x14c shell/lib.a(ash.o)
 .text.ash_vmsg_and_raise
                0x000000000041fc10       0x6c shell/lib.a(ash.o)
 .text.ash_msg_and_raise_error
                0x000000000041fc7c       0x3c shell/lib.a(ash.o)
 .text.ash_msg_and_raise
                0x000000000041fcb8       0x30 shell/lib.a(ash.o)
 .text.ash_msg  0x000000000041fce8       0x48 shell/lib.a(ash.o)
 .text.errmsg   0x000000000041fd30       0x38 shell/lib.a(ash.o)
 .text.ckrealloc
                0x000000000041fd68       0x58 shell/lib.a(ash.o)
 .text.ckmalloc
                0x000000000041fdc0       0x20 shell/lib.a(ash.o)
 .text.ckzalloc
                0x000000000041fde0       0x54 shell/lib.a(ash.o)
 .text.ckstrdup
                0x000000000041fe34       0x58 shell/lib.a(ash.o)
 .text.stalloc  0x000000000041fe8c      0x158 shell/lib.a(ash.o)
 .text.stzalloc
                0x000000000041ffe4       0x54 shell/lib.a(ash.o)
 .text.stunalloc
                0x0000000000420038       0x38 shell/lib.a(ash.o)
 .text.ststrdup
                0x0000000000420070       0x74 shell/lib.a(ash.o)
 .text.setstackmark
                0x00000000004200e4       0x44 shell/lib.a(ash.o)
 .text.popstackmark
                0x0000000000420128      0x138 shell/lib.a(ash.o)
 .text.growstackblock
                0x0000000000420260      0x1f8 shell/lib.a(ash.o)
 .text.growstackstr
                0x0000000000420458       0xac shell/lib.a(ash.o)
 .text.makestrspace
                0x0000000000420504       0xa0 shell/lib.a(ash.o)
 .text.stack_nputstr
                0x00000000004205a4       0x70 shell/lib.a(ash.o)
 .text.stack_putstr
                0x0000000000420614       0x5c shell/lib.a(ash.o)
 .text._STPUTC  0x0000000000420670       0x70 shell/lib.a(ash.o)
 .text.prefix   0x00000000004206e0       0x30 shell/lib.a(ash.o)
 .text.is_number
                0x0000000000420710       0x3c shell/lib.a(ash.o)
 .text.number   0x000000000042074c       0x6c shell/lib.a(ash.o)
 .text.single_quote
                0x00000000004207b8      0x150 shell/lib.a(ash.o)
 .text.nextopt  0x0000000000420908      0x178 shell/lib.a(ash.o)
 .text.freeparam
                0x0000000000420a80       0x98 shell/lib.a(ash.o)
 .text.getoptsreset
                0x0000000000420b18       0x54 shell/lib.a(ash.o)
 .text.endofname
                0x0000000000420b6c       0xb0 shell/lib.a(ash.o)
 .text.varcmp   0x0000000000420c1c       0x60 shell/lib.a(ash.o)
 .text.varequal
                0x0000000000420c7c       0x40 shell/lib.a(ash.o)
 .text.hashvar  0x0000000000420cbc       0xa0 shell/lib.a(ash.o)
 .text.vpcmp    0x0000000000420d5c       0x24 shell/lib.a(ash.o)
 .text.findvar  0x0000000000420d80       0x84 shell/lib.a(ash.o)
 .text.lookupvar
                0x0000000000420e04       0x9c shell/lib.a(ash.o)
 .text.bltinlookup
                0x0000000000420ea0       0xac shell/lib.a(ash.o)
 .text.setvareq
                0x0000000000420f4c      0x1f4 shell/lib.a(ash.o)
 .text.setvar   0x0000000000421140      0x1c4 shell/lib.a(ash.o)
 .text.setvarsafe
                0x0000000000421304       0xe8 shell/lib.a(ash.o)
 .text.unsetvar
                0x00000000004213ec      0x184 shell/lib.a(ash.o)
 .text.listsetvar
                0x0000000000421570       0xd8 shell/lib.a(ash.o)
 .text.listvars
                0x0000000000421648      0x16c shell/lib.a(ash.o)
 .text.padvance
                0x00000000004217b4      0x22c shell/lib.a(ash.o)
 .text.setprompt
                0x00000000004219e0       0x8c shell/lib.a(ash.o)
 .text.cdopt    0x0000000000421a6c       0x78 shell/lib.a(ash.o)
 .text.setpwd   0x0000000000421ae4      0x1ec shell/lib.a(ash.o)
 .text.cdcmd    0x0000000000421cd0      0x61c shell/lib.a(ash.o)
 .text.pwdcmd   0x00000000004222ec       0xa8 shell/lib.a(ash.o)
 .text.setsignal
                0x0000000000422394      0x224 shell/lib.a(ash.o)
 .text.set_curjob
                0x00000000004225b8       0x64 shell/lib.a(ash.o)
 .text.freejob  0x000000000042261c      0x150 shell/lib.a(ash.o)
 .text.dowait   0x000000000042276c      0x2cc shell/lib.a(ash.o)
 .text.getstatus
                0x0000000000422a38       0x38 shell/lib.a(ash.o)
 .text.waitcmd  0x0000000000422a70      0x38c shell/lib.a(ash.o)
 .text.makejob  0x0000000000422dfc      0x204 shell/lib.a(ash.o)
 .text.waitforjob
                0x0000000000423000       0xa0 shell/lib.a(ash.o)
 .text.stoppedjobs
                0x00000000004230a0       0xa0 shell/lib.a(ash.o)
 .text.copyfd   0x0000000000423140       0xb8 shell/lib.a(ash.o)
 .text.need_to_remember
                0x00000000004231f8       0x50 shell/lib.a(ash.o)
 .text.is_hidden_fd
                0x0000000000423248       0xa0 shell/lib.a(ash.o)
 .text.popredir
                0x00000000004232e8      0x1cc shell/lib.a(ash.o)
 .text.clearredir
                0x00000000004234b4       0x70 shell/lib.a(ash.o)
 .text.cvtnum   0x0000000000423524       0x88 shell/lib.a(ash.o)
 .text._rmescapes
                0x00000000004235ac      0x1f0 shell/lib.a(ash.o)
 .text.preglob  0x000000000042379c       0x2c shell/lib.a(ash.o)
 .text.memtodest
                0x00000000004237c8      0x110 shell/lib.a(ash.o)
 .text.recordregion
                0x00000000004238d8      0x104 shell/lib.a(ash.o)
 .text.removerecordregions
                0x00000000004239dc      0x278 shell/lib.a(ash.o)
 .text.scanleft
                0x0000000000423c54       0xdc shell/lib.a(ash.o)
 .text.scanright
                0x0000000000423d30      0x148 shell/lib.a(ash.o)
 .text.varunset
                0x0000000000423e78       0x8c shell/lib.a(ash.o)
 .text.addfname
                0x0000000000423f04       0x80 shell/lib.a(ash.o)
 .text.expmeta  0x0000000000423f84      0x410 shell/lib.a(ash.o)
 .text.msort    0x0000000000424394      0x128 shell/lib.a(ash.o)
 .text.tryexec  0x00000000004244bc      0x128 shell/lib.a(ash.o)
 .text.shellexec
                0x00000000004245e4      0x1d4 shell/lib.a(ash.o)
 .text.clearcmdentry
                0x00000000004247b8      0x16c shell/lib.a(ash.o)
 .text.cmdlookup
                0x0000000000424924      0x160 shell/lib.a(ash.o)
 .text.delete_cmd_entry
                0x0000000000424a84       0xfc shell/lib.a(ash.o)
 .text.changepath
                0x0000000000424b80      0x170 shell/lib.a(ash.o)
 .text.tokname  0x0000000000424cf0       0x8c shell/lib.a(ash.o)
 .text.pstrcmp  0x0000000000424d7c       0x20 shell/lib.a(ash.o)
 .text.findkwd  0x0000000000424d9c       0x50 shell/lib.a(ash.o)
 .text.sizenodelist
                0x0000000000424dec       0x68 shell/lib.a(ash.o)
 .text.calcsize
                0x0000000000424e54      0x1ac shell/lib.a(ash.o)
 .text.nodeckstrdup
                0x0000000000425000       0x88 shell/lib.a(ash.o)
 .text.copynodelist
                0x0000000000425088       0x8c shell/lib.a(ash.o)
 .text.copynode
                0x0000000000425114      0x208 shell/lib.a(ash.o)
 .text.optschanged
                0x000000000042531c       0xe8 shell/lib.a(ash.o)
 .text.localcmd
                0x0000000000425404      0x288 shell/lib.a(ash.o)
 .text.falsecmd
                0x000000000042568c        0x8 shell/lib.a(ash.o)
 .text.truecmd  0x0000000000425694        0x8 shell/lib.a(ash.o)
 .text.execcmd  0x000000000042569c       0x80 shell/lib.a(ash.o)
 .text.returncmd
                0x000000000042571c       0x68 shell/lib.a(ash.o)
 .text.find_builtin
                0x0000000000425784       0x50 shell/lib.a(ash.o)
 .text.isassignment
                0x00000000004257d4       0x60 shell/lib.a(ash.o)
 .text.bltincmd
                0x0000000000425834       0x20 shell/lib.a(ash.o)
 .text.evalbltin
                0x0000000000425854      0x144 shell/lib.a(ash.o)
 .text.goodname
                0x0000000000425998       0x44 shell/lib.a(ash.o)
 .text.breakcmd
                0x00000000004259dc       0xd4 shell/lib.a(ash.o)
 .text.popstring
                0x0000000000425ab0       0xd0 shell/lib.a(ash.o)
 .text.preadbuffer
                0x0000000000425b80      0x344 shell/lib.a(ash.o)
 .text.pgetc    0x0000000000425ec4       0x54 shell/lib.a(ash.o)
 .text.pgetc2   0x0000000000425f18       0x54 shell/lib.a(ash.o)
 .text.pungetc  0x0000000000425f6c       0x30 shell/lib.a(ash.o)
 .text.pushfile
                0x0000000000425f9c       0x94 shell/lib.a(ash.o)
 .text.popfile  0x0000000000426030      0x168 shell/lib.a(ash.o)
 .text.popallfiles
                0x0000000000426198       0x6c shell/lib.a(ash.o)
 .text.forkshell
                0x0000000000426204      0x3ec shell/lib.a(ash.o)
 .text.setinputfile
                0x00000000004265f0      0x1fc shell/lib.a(ash.o)
 .text.setinputstring
                0x00000000004267ec       0xf4 shell/lib.a(ash.o)
 .text.setparam
                0x00000000004268e0      0x100 shell/lib.a(ash.o)
 .text.options  0x00000000004269e0      0x3ec shell/lib.a(ash.o)
 .text.shiftcmd
                0x0000000000426dcc      0x190 shell/lib.a(ash.o)
 .text.showvars
                0x0000000000426f5c      0x13c shell/lib.a(ash.o)
 .text.setcmd   0x0000000000427098      0x144 shell/lib.a(ash.o)
 .text.getoptscmd
                0x00000000004271dc      0x4a0 shell/lib.a(ash.o)
 .text.raise_error_syntax
                0x000000000042767c       0x30 shell/lib.a(ash.o)
 .text.raise_error_unexpected_syntax
                0x00000000004276ac       0xb8 shell/lib.a(ash.o)
 .text.makename
                0x0000000000427764       0x5c shell/lib.a(ash.o)
 .text.fixredir
                0x00000000004277c0      0x100 shell/lib.a(ash.o)
 .text.xxreadtoken
                0x00000000004278c0      0x318 shell/lib.a(ash.o)
 .text.readtoken
                0x0000000000427bd8      0x12c shell/lib.a(ash.o)
 .text.parsefname
                0x0000000000427d04      0x224 shell/lib.a(ash.o)
 .text.peektoken
                0x0000000000427f28       0x60 shell/lib.a(ash.o)
 .text.list     0x0000000000427f88      0x2f8 shell/lib.a(ash.o)
 .text.readtoken1
                0x0000000000428280     0x16b8 shell/lib.a(ash.o)
 .text.parseheredoc
                0x0000000000429938      0x120 shell/lib.a(ash.o)
 .text.parse_command
                0x0000000000429a58      0xa84 shell/lib.a(ash.o)
 .text.pipeline
                0x000000000042a4dc      0x1a0 shell/lib.a(ash.o)
 .text.parsecmd
                0x000000000042a67c       0xc0 shell/lib.a(ash.o)
 .text.evalstring
                0x000000000042a73c      0x114 shell/lib.a(ash.o)
 .text.evaltree
                0x000000000042a850      0x5e4 shell/lib.a(ash.o)
 .text.argstr   0x000000000042ae34      0x868 shell/lib.a(ash.o)
 .text.expandarg
                0x000000000042b69c      0x6cc shell/lib.a(ash.o)
 .text.expredir
                0x000000000042bd68      0x10c shell/lib.a(ash.o)
 .text.redirect
                0x000000000042be74      0x7fc shell/lib.a(ash.o)
 .text.redirectsafe
                0x000000000042c670      0x10c shell/lib.a(ash.o)
 .text.evalsubshell
                0x000000000042c77c      0x1e4 shell/lib.a(ash.o)
 .text.subevalvar
                0x000000000042c960      0x7bc shell/lib.a(ash.o)
 .text.evalvar  0x000000000042d11c      0x934 shell/lib.a(ash.o)
 .text.evalcase
                0x000000000042da50      0x254 shell/lib.a(ash.o)
 .text.evalloop
                0x000000000042dca4      0x168 shell/lib.a(ash.o)
 .text.evalfor  0x000000000042de0c      0x1d4 shell/lib.a(ash.o)
 .text.evalfun  0x000000000042dfe0      0x3f8 shell/lib.a(ash.o)
 .text.evalcmd  0x000000000042e3d8      0x118 shell/lib.a(ash.o)
 .text.cmdloop  0x000000000042e4f0      0x194 shell/lib.a(ash.o)
 .text.dotcmd   0x000000000042e684      0x274 shell/lib.a(ash.o)
 .text.exitcmd  0x000000000042e8f8       0x98 shell/lib.a(ash.o)
 .text.find_command
                0x000000000042e990      0x644 shell/lib.a(ash.o)
 .text.typecmd  0x000000000042efd4      0x360 shell/lib.a(ash.o)
 .text.hashcmd  0x000000000042f334      0x27c shell/lib.a(ash.o)
 .text.evalpipe
                0x000000000042f5b0      0x368 shell/lib.a(ash.o)
 .text.evalcommand
                0x000000000042f918      0x744 shell/lib.a(ash.o)
 .text.trapcmd  0x000000000043005c      0x268 shell/lib.a(ash.o)
 .text.helpcmd  0x00000000004302c4       0xe8 shell/lib.a(ash.o)
 .text.exportcmd
                0x00000000004303ac      0x178 shell/lib.a(ash.o)
 .text.unsetcmd
                0x0000000000430524      0x124 shell/lib.a(ash.o)
 .text.timescmd
                0x0000000000430648      0x130 shell/lib.a(ash.o)
 .text.readcmd  0x0000000000430778      0x428 shell/lib.a(ash.o)
 .text.umaskcmd
                0x0000000000430ba0      0x2dc shell/lib.a(ash.o)
 .text.printlim
                0x0000000000430e7c       0x64 shell/lib.a(ash.o)
 .text.ulimitcmd
                0x0000000000430ee0      0x30c shell/lib.a(ash.o)
 .text.exitshell
                0x00000000004311ec       0xd8 shell/lib.a(ash.o)
 .text.read_profile
                0x00000000004312c4       0x9c shell/lib.a(ash.o)
 .text.ash_main
                0x0000000000431360      0x8f0 shell/lib.a(ash.o)
                0x0000000000431360                ash_main
 .text.klogd_signal
                0x0000000000431c50       0x64 sysklogd/lib.a(klogd.o)
 .text.klogd_main
                0x0000000000431cb4      0x248 sysklogd/lib.a(klogd.o)
                0x0000000000431cb4                klogd_main
 .text.error_exit
                0x0000000000431efc       0x4c sysklogd/lib.a(logread.o)
 .text.sem_up   0x0000000000431f48       0x60 sysklogd/lib.a(logread.o)
 .text.interrupted
                0x0000000000431fa8       0x5c sysklogd/lib.a(logread.o)
 .text.logread_main
                0x0000000000432004      0x3b0 sysklogd/lib.a(logread.o)
                0x0000000000432004                logread_main
 .text.timestamp_and_log
                0x00000000004323b4      0x47c sysklogd/lib.a(syslogd_and_logger.o)
 .text.quit_signal
                0x0000000000432830      0x110 sysklogd/lib.a(syslogd_and_logger.o)
 .text.create_socket
                0x0000000000432940      0x148 sysklogd/lib.a(syslogd_and_logger.o)
 .text.syslogd_main
                0x0000000000432a88      0x660 sysklogd/lib.a(syslogd_and_logger.o)
                0x0000000000432a88                syslogd_main
 .text.decode   0x00000000004330e8       0xa8 sysklogd/lib.a(syslogd_and_logger.o)
 .text.logger_main
                0x0000000000433190      0x310 sysklogd/lib.a(syslogd_and_logger.o)
                0x0000000000433190                logger_main
 .text.close_dev_fd
                0x00000000004334a0       0x44 util-linux/lib.a(fdisk.o)
 .text.read_line
                0x00000000004334e4       0xe4 util-linux/lib.a(fdisk.o)
 .text.str_units
                0x00000000004335c8       0x6c util-linux/lib.a(fdisk.o)
 .text.valid_part_table_flag
                0x0000000000433634       0x2c util-linux/lib.a(fdisk.o)
 .text.read_nonempty
                0x0000000000433660       0x64 util-linux/lib.a(fdisk.o)
 .text.read_maybe_empty
                0x00000000004336c4       0x6c util-linux/lib.a(fdisk.o)
 .text.fdisk_fatal
                0x0000000000433730       0x78 util-linux/lib.a(fdisk.o)
 .text.seek_sector
                0x00000000004337a8       0xb4 util-linux/lib.a(fdisk.o)
 .text.write_sector
                0x000000000043385c       0x5c util-linux/lib.a(fdisk.o)
 .text.store4_little_endian
                0x00000000004338b8       0x20 util-linux/lib.a(fdisk.o)
 .text.read4_little_endian
                0x00000000004338d8       0x2c util-linux/lib.a(fdisk.o)
 .text.set_start_sect
                0x0000000000433904       0x20 util-linux/lib.a(fdisk.o)
 .text.get_start_sect
                0x0000000000433924       0x20 util-linux/lib.a(fdisk.o)
 .text.set_nr_sects
                0x0000000000433944       0x20 util-linux/lib.a(fdisk.o)
 .text.get_nr_sects
                0x0000000000433964       0x20 util-linux/lib.a(fdisk.o)
 .text.get_partition_start
                0x0000000000433984       0x50 util-linux/lib.a(fdisk.o)
 .text.menu     0x00000000004339d4      0x1b4 util-linux/lib.a(fdisk.o)
 .text.get_sys_types
                0x0000000000433b88       0x18 util-linux/lib.a(fdisk.o)
 .text.partition_type
                0x0000000000433ba0       0x84 util-linux/lib.a(fdisk.o)
 .text.list_types
                0x0000000000433c24      0x15c util-linux/lib.a(fdisk.o)
 .text.is_cleared_partition
                0x0000000000433d80      0x108 util-linux/lib.a(fdisk.o)
 .text.clear_partition
                0x0000000000433e88       0x2c util-linux/lib.a(fdisk.o)
 .text.set_partition
                0x0000000000433eb4      0x340 util-linux/lib.a(fdisk.o)
 .text.warn_geometry
                0x00000000004341f4      0x124 util-linux/lib.a(fdisk.o)
 .text.update_units
                0x0000000000434318       0x58 util-linux/lib.a(fdisk.o)
 .text.read_int
                0x0000000000434370      0x424 util-linux/lib.a(fdisk.o)
 .text.get_partition
                0x0000000000434794       0xb0 util-linux/lib.a(fdisk.o)
 .text.get_existing_partition
                0x0000000000434844      0x138 util-linux/lib.a(fdisk.o)
 .text.get_nonexisting_partition
                0x000000000043497c      0x138 util-linux/lib.a(fdisk.o)
 .text.delete_partition
                0x0000000000434ab4      0x36c util-linux/lib.a(fdisk.o)
 .text.get_boot
                0x0000000000434e20      0xad8 util-linux/lib.a(fdisk.o)
 .text.create_doslabel
                0x00000000004358f8       0xc4 util-linux/lib.a(fdisk.o)
 .text.linear2chs
                0x00000000004359bc       0xa0 util-linux/lib.a(fdisk.o)
 .text.check_consistency
                0x0000000000435a5c      0x304 util-linux/lib.a(fdisk.o)
 .text.list_disk_geometry
                0x0000000000435d60      0x1ec util-linux/lib.a(fdisk.o)
 .text.list_table
                0x0000000000435f4c      0x678 util-linux/lib.a(fdisk.o)
 .text.fill_bounds
                0x00000000004365c4      0x164 util-linux/lib.a(fdisk.o)
 .text.add_partition
                0x0000000000436728      0xd70 util-linux/lib.a(fdisk.o)
 .text.add_logical
                0x0000000000437498       0xf0 util-linux/lib.a(fdisk.o)
 .text.reread_partition_table
                0x0000000000437588       0x9c util-linux/lib.a(fdisk.o)
 .text.write_table
                0x0000000000437624      0x12c util-linux/lib.a(fdisk.o)
 .text.open_list_and_close
                0x0000000000437750      0x2c0 util-linux/lib.a(fdisk.o)
 .text.unknown_command
                0x0000000000437a10       0x24 util-linux/lib.a(fdisk.o)
 .text.fdisk_main
                0x0000000000437a34     0x1bf0 util-linux/lib.a(fdisk.o)
                0x0000000000437a34                fdisk_main
 .text.make_device
                0x0000000000439624      0x52c util-linux/lib.a(mdev.o)
 .text.fileAction
                0x0000000000439b50       0xbc util-linux/lib.a(mdev.o)
 .text.dirAction
                0x0000000000439c0c       0x10 util-linux/lib.a(mdev.o)
 .text.mdev_main
                0x0000000000439c1c      0x370 util-linux/lib.a(mdev.o)
                0x0000000000439c1c                mdev_main
 .text.append_mount_options
                0x0000000000439f8c      0x19c util-linux/lib.a(mount.o)
 .text.parse_mount_options
                0x000000000043a128      0x1ac util-linux/lib.a(mount.o)
 .text.mount_it_now
                0x000000000043a2d4      0x118 util-linux/lib.a(mount.o)
 .text.singlemount
                0x000000000043a3ec      0x32c util-linux/lib.a(mount.o)
 .text.mount_main
                0x000000000043a718      0x5b4 util-linux/lib.a(mount.o)
                0x000000000043a718                mount_main
 .text.umount_main
                0x000000000043accc      0x3b8 util-linux/lib.a(umount.o)
                0x000000000043accc                umount_main
 .text.basename_main
                0x000000000043b084      0x114 coreutils/lib.a(basename.o)
                0x000000000043b084                basename_main
 .text.bb_cat   0x000000000043b198       0xc4 coreutils/lib.a(cat.o)
                0x000000000043b198                bb_cat
 .text.cat_main
                0x000000000043b25c       0x60 coreutils/lib.a(cat.o)
                0x000000000043b25c                cat_main
 .text.fileAction
                0x000000000043b2bc       0xf4 coreutils/lib.a(chmod.o)
 .text.chmod_main
                0x000000000043b3b0      0x158 coreutils/lib.a(chmod.o)
                0x000000000043b3b0                chmod_main
 .text.cp_main  0x000000000043b508      0x1dc coreutils/lib.a(cp.o)
                0x000000000043b508                cp_main
 .text.maybe_set_utc
                0x000000000043b6e4       0x34 coreutils/lib.a(date.o)
 .text.date_main
                0x000000000043b718      0x6fc coreutils/lib.a(date.o)
                0x000000000043b718                date_main
 .text.full_write_or_warn
                0x000000000043be14       0x7c coreutils/lib.a(dd.o)
 .text.write_and_stats
                0x000000000043be90       0x8c coreutils/lib.a(dd.o)
 .text.dd_main  0x000000000043bf1c      0x6f4 coreutils/lib.a(dd.o)
                0x000000000043bf1c                dd_main
 .text.echo_main
                0x000000000043c610      0x248 coreutils/lib.a(echo.o)
                0x000000000043c610                echo_main
 .text.int_value
                0x000000000043c858       0x44 coreutils/lib.a(expr.o)
 .text.str_value
                0x000000000043c89c       0x6c coreutils/lib.a(expr.o)
 .text.freev    0x000000000043c908       0x5c coreutils/lib.a(expr.o)
 .text.null     0x000000000043c964       0x50 coreutils/lib.a(expr.o)
 .text.tostring
                0x000000000043c9b4       0x60 coreutils/lib.a(expr.o)
 .text.toarith  0x000000000043ca14       0xa0 coreutils/lib.a(expr.o)
 .text.nextarg  0x000000000043cab4       0x78 coreutils/lib.a(expr.o)
 .text.arithmetic_common
                0x000000000043cb2c      0x11c coreutils/lib.a(expr.o)
 .text.docolon  0x000000000043cc48      0x1bc coreutils/lib.a(expr.o)
 .text.eval1    0x000000000043ce04      0x150 coreutils/lib.a(expr.o)
 .text.eval     0x000000000043cf54       0xfc coreutils/lib.a(expr.o)
 .text.eval6    0x000000000043d050      0x504 coreutils/lib.a(expr.o)
 .text.eval5    0x000000000043d554       0xfc coreutils/lib.a(expr.o)
 .text.eval4    0x000000000043d650      0x150 coreutils/lib.a(expr.o)
 .text.eval3    0x000000000043d7a0      0x134 coreutils/lib.a(expr.o)
 .text.eval2    0x000000000043d8d4      0x2a0 coreutils/lib.a(expr.o)
 .text.expr_main
                0x000000000043db74       0xf0 coreutils/lib.a(expr.o)
                0x000000000043db74                expr_main
 .text.head_main
                0x000000000043dc64      0x29c coreutils/lib.a(head.o)
                0x000000000043dc64                head_main
 .text.printf_full
                0x000000000043df00       0x6c coreutils/lib.a(id.o)
 .text.id_main  0x000000000043df6c      0x2a0 coreutils/lib.a(id.o)
                0x000000000043df6c                id_main
 .text.my_stat  0x000000000043e20c       0xf8 coreutils/lib.a(ls.o)
 .text.count_dirs
                0x000000000043e304       0x90 coreutils/lib.a(ls.o)
 .text.dnalloc  0x000000000043e394       0x2c coreutils/lib.a(ls.o)
 .text.splitdnarray
                0x000000000043e3c0      0x168 coreutils/lib.a(ls.o)
 .text.showfiles
                0x000000000043e528      0x57c coreutils/lib.a(ls.o)
 .text.showdirs
                0x000000000043eaa4      0x2d8 coreutils/lib.a(ls.o)
 .text.ls_main  0x000000000043ed7c      0x3e8 coreutils/lib.a(ls.o)
                0x000000000043ed7c                ls_main
 .text.mkdir_main
                0x000000000043f164      0x138 coreutils/lib.a(mkdir.o)
                0x000000000043f164                mkdir_main
 .text.mknod_main
                0x000000000043f29c      0x194 coreutils/lib.a(mknod.o)
                0x000000000043f29c                mknod_main
 .text.mv_main  0x000000000043f430      0x358 coreutils/lib.a(mv.o)
                0x000000000043f430                mv_main
 .text.nice_main
                0x000000000043f788      0x174 coreutils/lib.a(nice.o)
                0x000000000043f788                nice_main
 .text.multiconvert
                0x000000000043f8fc       0xc8 coreutils/lib.a(printf.o)
 .text.conv_strtoul
                0x000000000043f9c4       0x48 coreutils/lib.a(printf.o)
 .text.conv_strtol
                0x000000000043fa0c       0x48 coreutils/lib.a(printf.o)
 .text.conv_strtod
                0x000000000043fa54       0x70 coreutils/lib.a(printf.o)
 .text.print_direc
                0x000000000043fac4      0x2d8 coreutils/lib.a(printf.o)
 .text.get_width_prec
                0x000000000043fd9c       0x7c coreutils/lib.a(printf.o)
 .text.printf_main
                0x000000000043fe18      0x4c4 coreutils/lib.a(printf.o)
                0x000000000043fe18                printf_main
 .text.pwd_main
                0x00000000004402dc       0x94 coreutils/lib.a(pwd.o)
                0x00000000004402dc                pwd_main
 .text.rm_main  0x0000000000440370      0x188 coreutils/lib.a(rm.o)
                0x0000000000440370                rm_main
 .text.sleep_main
                0x00000000004404f8       0x6c coreutils/lib.a(sleep.o)
                0x00000000004404f8                sleep_main
 .text.compare_keys
                0x0000000000440564      0x120 coreutils/lib.a(sort.o)
 .text.sort_main
                0x0000000000440684      0x2ac coreutils/lib.a(sort.o)
                0x0000000000440684                sort_main
 .text.sync_main
                0x0000000000440930       0x54 coreutils/lib.a(sync.o)
                0x0000000000440930                sync_main
 .text.syntax   0x0000000000440984       0x80 coreutils/lib.a(test.o)
 .text.getn     0x0000000000440a04       0xbc coreutils/lib.a(test.o)
 .text.check_operator
                0x0000000000440ac0       0xbc coreutils/lib.a(test.o)
 .text.binop    0x0000000000440b7c      0x288 coreutils/lib.a(test.o)
 .text.nexpr    0x0000000000440e04      0x61c coreutils/lib.a(test.o)
 .text.aexpr    0x0000000000441420       0xfc coreutils/lib.a(test.o)
 .text.oexpr    0x000000000044151c      0x100 coreutils/lib.a(test.o)
 .text.test_main
                0x000000000044161c      0x200 coreutils/lib.a(test.o)
                0x000000000044161c                test_main
 .text.touch_main
                0x000000000044181c      0x138 coreutils/lib.a(touch.o)
                0x000000000044181c                touch_main
 .text.uname_main
                0x0000000000441954      0x15c coreutils/lib.a(uname.o)
                0x0000000000441954                uname_main
 .text.wc_main  0x0000000000441ab0      0x3bc coreutils/lib.a(wc.o)
                0x0000000000441ab0                wc_main
 .text.cp_mv_stat2
                0x0000000000441e6c       0xa8 coreutils/libcoreutils/lib.a(cp_mv_stat.o)
                0x0000000000441e6c                cp_mv_stat2
 .text.cp_mv_stat
                0x0000000000441f14       0x1c coreutils/libcoreutils/lib.a(cp_mv_stat.o)
                0x0000000000441f14                cp_mv_stat
 .text.getopt_mk_fifo_nod
                0x0000000000441f30       0x8c coreutils/libcoreutils/lib.a(getopt_mk_fifo_nod.o)
                0x0000000000441f30                getopt_mk_fifo_nod
 .text.zero_out_var
                0x0000000000441fbc       0x1c editors/lib.a(awk.o)
 .text.syntax_error
                0x0000000000441fd8       0x3c editors/lib.a(awk.o)
 .text.hashidx  0x0000000000442014       0x30 editors/lib.a(awk.o)
 .text.hash_init
                0x0000000000442044       0x64 editors/lib.a(awk.o)
 .text.hash_search
                0x00000000004420a8       0xb0 editors/lib.a(awk.o)
 .text.hash_find
                0x0000000000442158      0x234 editors/lib.a(awk.o)
 .text.hash_remove
                0x000000000044238c      0x124 editors/lib.a(awk.o)
 .text.skip_spaces
                0x00000000004424b0       0x84 editors/lib.a(awk.o)
 .text.nextword
                0x0000000000442534       0x24 editors/lib.a(awk.o)
 .text.nextchar
                0x0000000000442558       0x88 editors/lib.a(awk.o)
 .text.iamarray
                0x00000000004425e0       0x8c editors/lib.a(awk.o)
 .text.clear_array
                0x000000000044266c       0xd4 editors/lib.a(awk.o)
 .text.clrvar   0x0000000000442740       0x70 editors/lib.a(awk.o)
 .text.getvar_i
                0x00000000004427b0       0xf4 editors/lib.a(awk.o)
 .text.is_numeric
                0x00000000004428a4       0x50 editors/lib.a(awk.o)
 .text.istrue   0x00000000004428f4       0xa0 editors/lib.a(awk.o)
 .text.nvalloc  0x0000000000442994      0x180 editors/lib.a(awk.o)
 .text.nvfree   0x0000000000442b14      0x1cc editors/lib.a(awk.o)
 .text.next_token
                0x0000000000442ce0      0x620 editors/lib.a(awk.o)
 .text.rollback_token
                0x0000000000443300       0x24 editors/lib.a(awk.o)
 .text.new_node
                0x0000000000443324       0x54 editors/lib.a(awk.o)
 .text.mk_re_node
                0x0000000000443378       0x8c editors/lib.a(awk.o)
 .text.chain_node
                0x0000000000443404      0x104 editors/lib.a(awk.o)
 .text.mk_splitter
                0x0000000000443508       0xec editors/lib.a(awk.o)
 .text.qrealloc
                0x00000000004435f4       0x78 editors/lib.a(awk.o)
 .text.fsrealloc
                0x000000000044366c      0x148 editors/lib.a(awk.o)
 .text.nextarg  0x00000000004437b4       0x4c editors/lib.a(awk.o)
 .text.fmt_num  0x0000000000443800      0x1a0 editors/lib.a(awk.o)
 .text.getvar_s
                0x00000000004439a0       0xe8 editors/lib.a(awk.o)
 .text.handle_special
                0x0000000000443a88      0x3a4 editors/lib.a(awk.o)
 .text.setvar_p
                0x0000000000443e2c       0x6c editors/lib.a(awk.o)
 .text.setvar_s
                0x0000000000443e98       0x6c editors/lib.a(awk.o)
 .text.setvar_u
                0x0000000000443f04       0x54 editors/lib.a(awk.o)
 .text.setari_u
                0x0000000000443f58       0xb0 editors/lib.a(awk.o)
 .text.setvar_i
                0x0000000000444008       0x84 editors/lib.a(awk.o)
 .text.parse_expr
                0x000000000044408c      0x4dc editors/lib.a(awk.o)
 .text.condition
                0x0000000000444568       0x48 editors/lib.a(awk.o)
 .text.chain_expr
                0x00000000004445b0       0xa4 editors/lib.a(awk.o)
 .text.chain_group
                0x0000000000444654      0x5b0 editors/lib.a(awk.o)
 .text.parse_program
                0x0000000000444c04      0x2d4 editors/lib.a(awk.o)
 .text.chain_loop
                0x0000000000444ed8      0x120 editors/lib.a(awk.o)
 .text.awk_getline
                0x0000000000444ff8      0x3dc editors/lib.a(awk.o)
 .text.incvar   0x00000000004453d4       0x68 editors/lib.a(awk.o)
 .text.copyvar  0x000000000044543c       0xbc editors/lib.a(awk.o)
 .text.awk_split
                0x00000000004454f8      0x394 editors/lib.a(awk.o)
 .text.split_f0
                0x000000000044588c      0x17c editors/lib.a(awk.o)
 .text.is_assignment
                0x0000000000445a08      0x154 editors/lib.a(awk.o)
 .text.next_input_file
                0x0000000000445b5c      0x210 editors/lib.a(awk.o)
 .text.evaluate
                0x0000000000445d6c     0x2dec editors/lib.a(awk.o)
 .text.as_regex
                0x0000000000448b58      0x130 editors/lib.a(awk.o)
 .text.awk_sub  0x0000000000448c88      0x3b8 editors/lib.a(awk.o)
 .text.awk_printf
                0x0000000000449040      0x494 editors/lib.a(awk.o)
 .text.ptest    0x00000000004494d4       0x4c editors/lib.a(awk.o)
 .text.awk_exit
                0x0000000000449520      0x134 editors/lib.a(awk.o)
 .text.awk_main
                0x0000000000449654      0x7b0 editors/lib.a(awk.o)
                0x0000000000449654                awk_main
 .text.cleanup_outname
                0x0000000000449e04       0x34 editors/lib.a(sed.o)
 .text.parse_escapes
                0x0000000000449e38       0x98 editors/lib.a(sed.o)
 .text.copy_parsing_escapes
                0x0000000000449ed0       0xc0 editors/lib.a(sed.o)
 .text.index_of_next_unescaped_regexp_delim
                0x0000000000449f90      0x104 editors/lib.a(sed.o)
 .text.parse_regex_delim
                0x000000000044a094      0x110 editors/lib.a(sed.o)
 .text.get_address
                0x000000000044a1a4      0x174 editors/lib.a(sed.o)
 .text.parse_file_cmd
                0x000000000044a318      0x134 editors/lib.a(sed.o)
 .text.add_cmd  0x000000000044a44c      0x8d4 editors/lib.a(sed.o)
 .text.pipe_putc
                0x000000000044ad20       0x88 editors/lib.a(sed.o)
 .text.append   0x000000000044ada8       0x48 editors/lib.a(sed.o)
 .text.flush_append
                0x000000000044adf0       0x98 editors/lib.a(sed.o)
 .text.add_input_file
                0x000000000044ae88       0x70 editors/lib.a(sed.o)
 .text.get_next_line
                0x000000000044aef8      0x1ac editors/lib.a(sed.o)
 .text.puts_maybe_newline
                0x000000000044b0a4      0x1e4 editors/lib.a(sed.o)
 .text.process_files
                0x000000000044b288      0xe70 editors/lib.a(sed.o)
 .text.add_cmd_block
                0x000000000044c0f8      0x114 editors/lib.a(sed.o)
 .text.sed_main
                0x000000000044c20c      0x558 editors/lib.a(sed.o)
                0x000000000044c20c                sed_main
 .text.write1   0x000000000044c764       0x20 editors/lib.a(vi.o)
 .text.clear_to_eol
                0x000000000044c784       0x24 editors/lib.a(vi.o)
 .text.standout_start
                0x000000000044c7a8       0x24 editors/lib.a(vi.o)
 .text.standout_end
                0x000000000044c7cc       0x24 editors/lib.a(vi.o)
 .text.next_tabstop
                0x000000000044c7f0       0x48 editors/lib.a(vi.o)
 .text.begin_line
                0x000000000044c838       0x74 editors/lib.a(vi.o)
 .text.prev_line
                0x000000000044c8ac       0x80 editors/lib.a(vi.o)
 .text.end_line
                0x000000000044c92c       0x74 editors/lib.a(vi.o)
 .text.count_lines
                0x000000000044c9a0       0xe8 editors/lib.a(vi.o)
 .text.next_line
                0x000000000044ca88       0x80 editors/lib.a(vi.o)
 .text.end_screen
                0x000000000044cb08       0x94 editors/lib.a(vi.o)
 .text.find_line
                0x000000000044cb9c       0x74 editors/lib.a(vi.o)
 .text.dot_left
                0x000000000044cc10       0x50 editors/lib.a(vi.o)
 .text.dot_right
                0x000000000044cc60       0x50 editors/lib.a(vi.o)
 .text.dot_begin
                0x000000000044ccb0       0x50 editors/lib.a(vi.o)
 .text.dot_end  0x000000000044cd00       0x50 editors/lib.a(vi.o)
 .text.move_to_col
                0x000000000044cd50       0xe8 editors/lib.a(vi.o)
 .text.dot_next
                0x000000000044ce38       0x50 editors/lib.a(vi.o)
 .text.dot_prev
                0x000000000044ce88       0x50 editors/lib.a(vi.o)
 .text.dot_skip_over_ws
                0x000000000044ced8       0x98 editors/lib.a(vi.o)
 .text.dot_scroll
                0x000000000044cf70      0x11c editors/lib.a(vi.o)
 .text.mycmp    0x000000000044d08c       0x3c editors/lib.a(vi.o)
 .text.char_search
                0x000000000044d0c8      0x174 editors/lib.a(vi.o)
 .text.skip_thing
                0x000000000044d23c      0x200 editors/lib.a(vi.o)
 .text.text_hole_delete
                0x000000000044d43c      0x10c editors/lib.a(vi.o)
 .text.screen_erase
                0x000000000044d548       0x2c editors/lib.a(vi.o)
 .text.text_hole_make
                0x000000000044d574      0x120 editors/lib.a(vi.o)
 .text.stupid_insert
                0x000000000044d694       0x4c editors/lib.a(vi.o)
 .text.yank_delete
                0x000000000044d6e0       0xc8 editors/lib.a(vi.o)
 .text.cookmode
                0x000000000044d7a8       0x54 editors/lib.a(vi.o)
 .text.mysleep  0x000000000044d7fc       0x54 editors/lib.a(vi.o)
 .text.place_cursor
                0x000000000044d850       0xb4 editors/lib.a(vi.o)
 .text.get_one_char
                0x000000000044d904      0x280 editors/lib.a(vi.o)
 .text.clear_to_eos
                0x000000000044db84       0x24 editors/lib.a(vi.o)
 .text.status_line_bold
                0x000000000044dba8       0xac editors/lib.a(vi.o)
 .text.file_write
                0x000000000044dc54       0xf8 editors/lib.a(vi.o)
 .text.status_line
                0x000000000044dd4c       0x60 editors/lib.a(vi.o)
 .text.not_implemented
                0x000000000044ddac      0x188 editors/lib.a(vi.o)
 .text.refresh  0x000000000044df34      0x720 editors/lib.a(vi.o)
 .text.char_insert
                0x000000000044e654      0x1a8 editors/lib.a(vi.o)
 .text.redraw   0x000000000044e7fc       0xa8 editors/lib.a(vi.o)
 .text.Indicate_Error
                0x000000000044e8a4       0xd8 editors/lib.a(vi.o)
 .text.show_status_line
                0x000000000044e97c      0x3b4 editors/lib.a(vi.o)
 .text.get_input_line
                0x000000000044ed30      0x1c0 editors/lib.a(vi.o)
 .text.do_cmd   0x000000000044eef0     0x2188 editors/lib.a(vi.o)
 .text.edit_file
                0x0000000000451078      0x5cc editors/lib.a(vi.o)
 .text.vi_main  0x0000000000451644      0x154 editors/lib.a(vi.o)
                0x0000000000451644                vi_main
 .text.find_range
                0x0000000000451798      0x458 editors/lib.a(vi.o)
 .text.print_line
                0x0000000000451bf0       0xe4 findutils/lib.a(grep.o)
 .text.grep_file
                0x0000000000451cd4      0x38c findutils/lib.a(grep.o)
 .text.add_grep_list_data
                0x0000000000452060       0x44 findutils/lib.a(grep.o)
 .text.file_action_grep
                0x00000000004520a4       0xe0 findutils/lib.a(grep.o)
 .text.grep_main
                0x0000000000452184      0x4a0 findutils/lib.a(grep.o)
                0x0000000000452184                grep_main
 .text.halt_main
                0x0000000000452624      0x190 init/lib.a(halt.o)
                0x0000000000452624                halt_main
 .text.waitfor  0x00000000004527b4       0x50 init/lib.a(init.o)
 .text.loop_forever
                0x0000000000452804       0x34 init/lib.a(init.o)
 .text.message  0x0000000000452838      0x178 init/lib.a(init.o)
 .text.set_sane_term
                0x00000000004529b0       0xc0 init/lib.a(init.o)
 .text.init_exec
                0x0000000000452a70      0x184 init/lib.a(init.o)
 .text.delete_init_action
                0x0000000000452bf4       0x6c init/lib.a(init.o)
 .text.init_reboot
                0x0000000000452c60       0x84 init/lib.a(init.o)
 .text.halt_reboot_pwoff
                0x0000000000452ce4      0x1f4 init/lib.a(init.o)
 .text.open_stdio_to_tty
                0x0000000000452ed8      0x120 init/lib.a(init.o)
 .text.run      0x0000000000452ff8      0x214 init/lib.a(init.o)
 .text.run_actions
                0x000000000045320c      0x134 init/lib.a(init.o)
 .text.kill_all_processes
                0x0000000000453340      0x15c init/lib.a(init.o)
 .text.exec_restart_action
                0x000000000045349c      0x114 init/lib.a(init.o)
 .text.ctrlaltdel_signal
                0x00000000004535b0       0x20 init/lib.a(init.o)
 .text.stop_handler
                0x00000000004535d0       0x7c init/lib.a(init.o)
 .text.cont_handler
                0x000000000045364c       0x1c init/lib.a(init.o)
 .text.new_init_action
                0x0000000000453668      0x138 init/lib.a(init.o)
 .text.parse_inittab
                0x00000000004537a0      0x290 init/lib.a(init.o)
 .text.reload_signal
                0x0000000000453a30       0xe4 init/lib.a(init.o)
 .text.init_main
                0x0000000000453b14      0x5b8 init/lib.a(init.o)
                0x0000000000453b14                init_main
 .text.bb_ask_confirmation
                0x00000000004540cc      0x104 libbb/lib.a(ask_confirmation.o)
                0x00000000004540cc                bb_ask_confirmation
 .text.askpass_timeout
                0x00000000004541d0        0x8 libbb/lib.a(bb_askpass.o)
 .text.bb_askpass
                0x00000000004541d8      0x2e8 libbb/lib.a(bb_askpass.o)
                0x00000000004541d8                bb_askpass
 .text.bb_do_delay
                0x00000000004544c0       0xa4 libbb/lib.a(bb_do_delay.o)
                0x00000000004544c0                bb_do_delay
 .text.bb_getug
                0x0000000000454564       0xac libbb/lib.a(bb_pwd.o)
 .text.bb_getpwuid
                0x0000000000454610       0x88 libbb/lib.a(bb_pwd.o)
                0x0000000000454610                bb_getpwuid
 .text.bb_getgrgid
                0x0000000000454698       0x88 libbb/lib.a(bb_pwd.o)
                0x0000000000454698                bb_getgrgid
 .text.xgroup2gid
                0x0000000000454720       0x60 libbb/lib.a(bb_pwd.o)
                0x0000000000454720                xgroup2gid
 .text.xuname2uid
                0x0000000000454780       0x60 libbb/lib.a(bb_pwd.o)
                0x0000000000454780                xuname2uid
 .text.change_identity
                0x00000000004547e0       0x98 libbb/lib.a(change_identity.o)
                0x00000000004547e0                change_identity
 .text.index_in_strings
                0x0000000000454878       0x9c libbb/lib.a(compare_string_array.o)
                0x0000000000454878                index_in_strings
 .text.index_in_substrings
                0x0000000000454914       0xc4 libbb/lib.a(compare_string_array.o)
                0x0000000000454914                index_in_substrings
 .text.nth_string
                0x00000000004549d8       0x68 libbb/lib.a(compare_string_array.o)
                0x00000000004549d8                nth_string
 .text.concat_path_file
                0x0000000000454a40       0xc0 libbb/lib.a(concat_path_file.o)
                0x0000000000454a40                concat_path_file
 .text.ask_and_unlink
                0x0000000000454b00       0xf0 libbb/lib.a(copy_file.o)
 .text.copy_file
                0x0000000000454bf0      0x8b0 libbb/lib.a(copy_file.o)
                0x0000000000454bf0                copy_file
 .text.correct_password
                0x00000000004554a0      0x104 libbb/lib.a(correct_password.o)
                0x00000000004554a0                correct_password
 .text.create_icmp_socket
                0x00000000004555a4       0xbc libbb/lib.a(create_icmp_socket.o)
                0x00000000004555a4                create_icmp_socket
 .text.i64c     0x0000000000455660       0x3c libbb/lib.a(crypt_make_salt.o)
 .text.crypt_make_salt
                0x000000000045569c       0xf4 libbb/lib.a(crypt_make_salt.o)
                0x000000000045569c                crypt_make_salt
 .text.device_open
                0x0000000000455790       0xb4 libbb/lib.a(device_open.o)
                0x0000000000455790                device_open
 .text.die_if_bad_username
                0x0000000000455844       0xb8 libbb/lib.a(die_if_bad_username.o)
                0x0000000000455844                die_if_bad_username
 .text.fclose_if_not_stdin
                0x00000000004558fc       0x8c libbb/lib.a(fclose_nonstdin.o)
                0x00000000004558fc                fclose_if_not_stdin
 .text.fflush_stdout_and_exit
                0x0000000000455988       0x60 libbb/lib.a(fflush_stdout_and_exit.o)
                0x0000000000455988                fflush_stdout_and_exit
 .text.find_pid_by_name
                0x00000000004559e8      0x1a0 libbb/lib.a(find_pid_by_name.o)
                0x00000000004559e8                find_pid_by_name
 .text.bb_get_chunk_with_continuation
                0x0000000000455b88      0x18c libbb/lib.a(get_line_from_file.o)
                0x0000000000455b88                bb_get_chunk_with_continuation
 .text.bb_get_chunk_from_file
                0x0000000000455d14       0x1c libbb/lib.a(get_line_from_file.o)
                0x0000000000455d14                bb_get_chunk_from_file
 .text.xmalloc_fgets
                0x0000000000455d30       0x3c libbb/lib.a(get_line_from_file.o)
                0x0000000000455d30                xmalloc_fgets
 .text.xmalloc_fgetline
                0x0000000000455d6c       0x68 libbb/lib.a(get_line_from_file.o)
                0x0000000000455d6c                xmalloc_fgetline
 .text.getopt32
                0x0000000000455dd4      0x6c4 libbb/lib.a(getopt32.o)
                0x0000000000455dd4                getopt32
 .text.xgetpty  0x0000000000456498       0xcc libbb/lib.a(getpty.o)
                0x0000000000456498                xgetpty
 .text.bb_herror_msg_and_die
                0x0000000000456564       0x7c libbb/lib.a(herror_msg_and_die.o)
                0x0000000000456564                bb_herror_msg_and_die
 .text.INET_resolve
                0x00000000004565e0       0xe4 libbb/lib.a(inet_common.o)
                0x00000000004565e0                INET_resolve
 .text.INET_rresolve
                0x00000000004566c4      0x25c libbb/lib.a(inet_common.o)
                0x00000000004566c4                INET_rresolve
 .text.bb_info_msg
                0x0000000000456920       0xc8 libbb/lib.a(info_msg.o)
                0x0000000000456920                bb_info_msg
 .text.is_in_ino_dev_hashtable
                0x00000000004569e8       0xc8 libbb/lib.a(inode_hash.o)
                0x00000000004569e8                is_in_ino_dev_hashtable
 .text.add_to_ino_dev_hashtable
                0x0000000000456ab0      0x12c libbb/lib.a(inode_hash.o)
                0x0000000000456ab0                add_to_ino_dev_hashtable
 .text.deinit_S
                0x0000000000456bdc       0x20 libbb/lib.a(lineedit.o)
 .text.cmdedit_set_out_char
                0x0000000000456bfc       0xb4 libbb/lib.a(lineedit.o)
 .text.input_end
                0x0000000000456cb0       0x74 libbb/lib.a(lineedit.o)
 .text.goto_new_line
                0x0000000000456d24       0x70 libbb/lib.a(lineedit.o)
 .text.beep     0x0000000000456d94       0x1c libbb/lib.a(lineedit.o)
 .text.input_backward
                0x0000000000456db0      0x11c libbb/lib.a(lineedit.o)
 .text.put_prompt
                0x0000000000456ecc       0x90 libbb/lib.a(lineedit.o)
 .text.redraw   0x0000000000456f5c       0xcc libbb/lib.a(lineedit.o)
 .text.input_delete
                0x0000000000457028       0xcc libbb/lib.a(lineedit.o)
 .text.input_backspace
                0x00000000004570f4       0x78 libbb/lib.a(lineedit.o)
 .text.input_forward
                0x000000000045716c       0x50 libbb/lib.a(lineedit.o)
 .text.free_tab_completion_data
                0x00000000004571bc       0xbc libbb/lib.a(lineedit.o)
 .text.add_quote_for_spec_chars
                0x0000000000457278       0xd0 libbb/lib.a(lineedit.o)
 .text.input_tab
                0x0000000000457348     0x145c libbb/lib.a(lineedit.o)
 .text.save_command_ps_at_cur_history
                0x00000000004587a4       0xa0 libbb/lib.a(lineedit.o)
 .text.get_previous_history
                0x0000000000458844       0xb8 libbb/lib.a(lineedit.o)
 .text.get_next_history
                0x00000000004588fc       0xc4 libbb/lib.a(lineedit.o)
 .text.parse_and_put_prompt
                0x00000000004589c0       0x50 libbb/lib.a(lineedit.o)
 .text.win_changed
                0x0000000000458a10       0xf4 libbb/lib.a(lineedit.o)
 .text.read_line_input
                0x0000000000458b04      0xc3c libbb/lib.a(lineedit.o)
                0x0000000000458b04                read_line_input
 .text.new_line_input_t
                0x0000000000459740       0x44 libbb/lib.a(lineedit.o)
                0x0000000000459740                new_line_input_t
 .text.llist_add_to
                0x0000000000459784       0x5c libbb/lib.a(llist.o)
                0x0000000000459784                llist_add_to
 .text.llist_add_to_end
                0x00000000004597e0       0x8c libbb/lib.a(llist.o)
                0x00000000004597e0                llist_add_to_end
 .text.llist_pop
                0x000000000045986c       0x70 libbb/lib.a(llist.o)
                0x000000000045986c                llist_pop
 .text.print_login_issue
                0x00000000004598dc      0x328 libbb/lib.a(login.o)
                0x00000000004598dc                print_login_issue
 .text.print_login_prompt
                0x0000000000459c04       0x9c libbb/lib.a(login.o)
                0x0000000000459c04                print_login_prompt
 .text.sanitize_env_if_suid
                0x0000000000459ca0       0xc4 libbb/lib.a(login.o)
                0x0000000000459ca0                sanitize_env_if_suid
 .text.bb_make_directory
                0x0000000000459d64      0x240 libbb/lib.a(make_directory.o)
                0x0000000000459d64                bb_make_directory
 .text.bb_makedev
                0x0000000000459fa4       0x60 libbb/lib.a(makedev.o)
                0x0000000000459fa4                bb_makedev
 .text.match_fstype
                0x000000000045a004      0x108 libbb/lib.a(match_fstype.o)
                0x000000000045a004                match_fstype
 .text.bb_mode_string
                0x000000000045a10c       0xd4 libbb/lib.a(mode_string.o)
                0x000000000045a10c                bb_mode_string
 .text.config_open2
                0x000000000045a1e0       0x60 libbb/lib.a(parse_config.o)
                0x000000000045a1e0                config_open2
 .text.config_open
                0x000000000045a240       0x1c libbb/lib.a(parse_config.o)
                0x000000000045a240                config_open
 .text.config_free_data
                0x000000000045a25c       0x48 libbb/lib.a(parse_config.o)
 .text.config_close
                0x000000000045a2a4       0x7c libbb/lib.a(parse_config.o)
                0x000000000045a2a4                config_close
 .text.config_read
                0x000000000045a320      0x2cc libbb/lib.a(parse_config.o)
                0x000000000045a320                config_read
 .text.bb_parse_mode
                0x000000000045a5ec      0x308 libbb/lib.a(parse_mode.o)
                0x000000000045a5ec                bb_parse_mode
 .text.bb_perror_nomsg_and_die
                0x000000000045a8f4       0x1c libbb/lib.a(perror_nomsg_and_die.o)
                0x000000000045a8f4                bb_perror_nomsg_and_die
 .text.write_pidfile
                0x000000000045a910      0x10c libbb/lib.a(pidfile.o)
                0x000000000045a910                write_pidfile
 .text.print_flags_separated
                0x000000000045aa1c       0xe0 libbb/lib.a(print_flags.o)
                0x000000000045aa1c                print_flags_separated
 .text.bb_process_escape_sequence
                0x000000000045aafc      0x108 libbb/lib.a(process_escape_sequence.o)
                0x000000000045aafc                bb_process_escape_sequence
 .text.get_cached
                0x000000000045ac04       0xdc libbb/lib.a(procps.o)
 .text.get_cached_username
                0x000000000045ace0       0x28 libbb/lib.a(procps.o)
                0x000000000045ace0                get_cached_username
 .text.read_to_buf
                0x000000000045ad08       0xa8 libbb/lib.a(procps.o)
 .text.free_procps_scan
                0x000000000045adb0       0x64 libbb/lib.a(procps.o)
                0x000000000045adb0                free_procps_scan
 .text.procps_scan
                0x000000000045ae14      0x3f0 libbb/lib.a(procps.o)
                0x000000000045ae14                procps_scan
 .text.read_cmdline
                0x000000000045b204       0xe0 libbb/lib.a(procps.o)
                0x000000000045b204                read_cmdline
 .text.pw_encrypt
                0x000000000045b2e4       0x40 libbb/lib.a(pw_encrypt.o)
                0x000000000045b2e4                pw_encrypt
 .text.true_action
                0x000000000045b324        0x8 libbb/lib.a(recursive_action.o)
 .text.recursive_action
                0x000000000045b32c      0x29c libbb/lib.a(recursive_action.o)
                0x000000000045b32c                recursive_action
 .text.remove_file
                0x000000000045b5c8      0x3a4 libbb/lib.a(remove_file.o)
                0x000000000045b5c8                remove_file
 .text.run_shell
                0x000000000045b96c      0x160 libbb/lib.a(run_shell.o)
                0x000000000045b96c                run_shell
 .text.safe_gethostname
                0x000000000045bacc       0x68 libbb/lib.a(safe_gethostname.o)
                0x000000000045bacc                safe_gethostname
 .text.safe_strncpy
                0x000000000045bb34       0x30 libbb/lib.a(safe_strncpy.o)
                0x000000000045bb34                safe_strncpy
 .text.overlapping_strcpy
                0x000000000045bb64       0x28 libbb/lib.a(safe_strncpy.o)
                0x000000000045bb64                overlapping_strcpy
 .text.setup_environment
                0x000000000045bb8c      0x1c4 libbb/lib.a(setup_environment.o)
                0x000000000045bb8c                setup_environment
 .text.sigaction_set
                0x000000000045bd50       0x1c libbb/lib.a(signals.o)
                0x000000000045bd50                sigaction_set
 .text.sigprocmask_allsigs
                0x000000000045bd6c       0x58 libbb/lib.a(signals.o)
                0x000000000045bd6c                sigprocmask_allsigs
 .text.bb_signals
                0x000000000045bdc4       0x8c libbb/lib.a(signals.o)
                0x000000000045bdc4                bb_signals
 .text.sig_unblock
                0x000000000045be50       0x70 libbb/lib.a(signals.o)
                0x000000000045be50                sig_unblock
 .text.kill_myself_with_sig
                0x000000000045bec0       0x74 libbb/lib.a(signals.o)
                0x000000000045bec0                kill_myself_with_sig
 .text.signal_SA_RESTART_empty_mask
                0x000000000045bf34       0x80 libbb/lib.a(signals.o)
                0x000000000045bf34                signal_SA_RESTART_empty_mask
 .text.bb_simplify_path
                0x000000000045bfb4      0x188 libbb/lib.a(simplify_path.o)
                0x000000000045bfb4                bb_simplify_path
 .text.tty_baud_to_value
                0x000000000045c13c       0x64 libbb/lib.a(speed_table.o)
                0x000000000045c13c                tty_baud_to_value
 .text.tty_value_to_baud
                0x000000000045c1a0       0x88 libbb/lib.a(speed_table.o)
                0x000000000045c1a0                tty_value_to_baud
 .text.str_tolower
                0x000000000045c228       0x58 libbb/lib.a(str_tolower.o)
                0x000000000045c228                str_tolower
 .text.monotonic_us
                0x000000000045c280       0x70 libbb/lib.a(time.o)
                0x000000000045c280                monotonic_us
 .text.monotonic_sec
                0x000000000045c2f0       0x1c libbb/lib.a(time.o)
                0x000000000045c2f0                monotonic_sec
 .text.get_signum
                0x000000000045c30c       0xe8 libbb/lib.a(u_signal_names.o)
                0x000000000045c30c                get_signum
 .text.get_signame
                0x000000000045c3f4       0x4c libbb/lib.a(u_signal_names.o)
                0x000000000045c3f4                get_signame
 .text.print_signames
                0x000000000045c440       0x70 libbb/lib.a(u_signal_names.o)
                0x000000000045c440                print_signames
 .text.update_passwd
                0x000000000045c4b0      0x508 libbb/lib.a(update_passwd.o)
                0x000000000045c4b0                update_passwd
 .text.bb_uuencode
                0x000000000045c9b8       0xcc libbb/lib.a(uuencode.o)
                0x000000000045c9b8                bb_uuencode
 .text.safe_waitpid
                0x000000000045ca84       0x8c libbb/lib.a(vfork_daemon_rexec.o)
                0x000000000045ca84                safe_waitpid
 .text.wait_any_nohang
                0x000000000045cb10       0x20 libbb/lib.a(vfork_daemon_rexec.o)
                0x000000000045cb10                wait_any_nohang
 .text.forkexit_or_rexec
                0x000000000045cb30       0x70 libbb/lib.a(vfork_daemon_rexec.o)
                0x000000000045cb30                forkexit_or_rexec
 .text.bb_daemonize_or_rexec
                0x000000000045cba0      0x1cc libbb/lib.a(vfork_daemon_rexec.o)
                0x000000000045cba0                bb_daemonize_or_rexec
 .text.bb_sanitize_stdio
                0x000000000045cd6c       0x1c libbb/lib.a(vfork_daemon_rexec.o)
                0x000000000045cd6c                bb_sanitize_stdio
 .text.bb_warn_ignoring_args
                0x000000000045cd88       0x2c libbb/lib.a(warn_ignoring_args.o)
                0x000000000045cd88                bb_warn_ignoring_args
 .text.fopen_or_warn_stdin
                0x000000000045cdb4       0x78 libbb/lib.a(wfopen_input.o)
                0x000000000045cdb4                fopen_or_warn_stdin
 .text.xfopen_stdin
                0x000000000045ce2c       0x54 libbb/lib.a(wfopen_input.o)
                0x000000000045ce2c                xfopen_stdin
 .text.open_or_warn_stdin
                0x000000000045ce80       0x6c libbb/lib.a(wfopen_input.o)
                0x000000000045ce80                open_or_warn_stdin
 .text.xopen_xwrite_close
                0x000000000045ceec       0x80 libbb/lib.a(write.o)
                0x000000000045ceec                xopen_xwrite_close
 .text.xstrtoul_range_sfx
                0x000000000045cf6c      0x1d0 libbb/lib.a(xatonum.o)
                0x000000000045cf6c                xstrtoul_range_sfx
 .text.xstrtol_range_sfx
                0x000000000045d13c       0xec libbb/lib.a(xatonum.o)
                0x000000000045d13c                xstrtol_range_sfx
 .text.xatol_range
                0x000000000045d228       0x44 libbb/lib.a(xatonum.o)
                0x000000000045d228                xatol_range
 .text.xatoul_sfx
                0x000000000045d26c       0x44 libbb/lib.a(xatonum.o)
                0x000000000045d26c                xatoul_sfx
 .text.xatoul   0x000000000045d2b0       0x1c libbb/lib.a(xatonum.o)
                0x000000000045d2b0                xatoul
 .text.xatoul_range
                0x000000000045d2cc       0x44 libbb/lib.a(xatonum.o)
                0x000000000045d2cc                xatoul_range
 .text.xatoul_range_sfx
                0x000000000045d310       0x48 libbb/lib.a(xatonum.o)
                0x000000000045d310                xatoul_range_sfx
 .text.xatoi_u  0x000000000045d358       0x20 libbb/lib.a(xatonum.o)
                0x000000000045d358                xatoi_u
 .text.xatou16  0x000000000045d378       0x3c libbb/lib.a(xatonum.o)
                0x000000000045d378                xatou16
 .text.setsockopt_reuseaddr
                0x000000000045d3b4       0x48 libbb/lib.a(xconnect.o)
                0x000000000045d3b4                setsockopt_reuseaddr
 .text.setsockopt_broadcast
                0x000000000045d3fc       0x48 libbb/lib.a(xconnect.o)
                0x000000000045d3fc                setsockopt_broadcast
 .text.xconnect
                0x000000000045d444       0x9c libbb/lib.a(xconnect.o)
                0x000000000045d444                xconnect
 .text.bb_lookup_port
                0x000000000045d4e0       0xf4 libbb/lib.a(xconnect.o)
                0x000000000045d4e0                bb_lookup_port
 .text.set_nport
                0x000000000045d5d4       0x1c libbb/lib.a(xconnect.o)
                0x000000000045d5d4                set_nport
 .text.str2sockaddr
                0x000000000045d5f0      0x258 libbb/lib.a(xconnect.o)
 .text.host2sockaddr
                0x000000000045d848       0x20 libbb/lib.a(xconnect.o)
                0x000000000045d848                host2sockaddr
 .text.xhost2sockaddr
                0x000000000045d868       0x20 libbb/lib.a(xconnect.o)
                0x000000000045d868                xhost2sockaddr
 .text.xdotted2sockaddr
                0x000000000045d888       0x20 libbb/lib.a(xconnect.o)
                0x000000000045d888                xdotted2sockaddr
 .text.xsocket_type
                0x000000000045d8a8       0x7c libbb/lib.a(xconnect.o)
                0x000000000045d8a8                xsocket_type
 .text.create_and_bind_or_die
                0x000000000045d924      0x114 libbb/lib.a(xconnect.o)
 .text.create_and_bind_stream_or_die
                0x000000000045da38       0x20 libbb/lib.a(xconnect.o)
                0x000000000045da38                create_and_bind_stream_or_die
 .text.xconnect_stream
                0x000000000045da58       0x70 libbb/lib.a(xconnect.o)
                0x000000000045da58                xconnect_stream
 .text.sockaddr2str
                0x000000000045dac8       0xc0 libbb/lib.a(xconnect.o)
 .text.xmalloc_sockaddr2dotted
                0x000000000045db88       0x20 libbb/lib.a(xconnect.o)
                0x000000000045db88                xmalloc_sockaddr2dotted
 .text.xmalloc_sockaddr2dotted_noport
                0x000000000045dba8       0x20 libbb/lib.a(xconnect.o)
                0x000000000045dba8                xmalloc_sockaddr2dotted_noport
 .text.xrealloc_getcwd_or_warn
                0x000000000045dbc8      0x104 libbb/lib.a(xgetcwd.o)
                0x000000000045dbc8                xrealloc_getcwd_or_warn
 .text.xgethostbyname
                0x000000000045dccc       0x5c libbb/lib.a(xgethostbyname.o)
                0x000000000045dccc                xgethostbyname
 .text.xmalloc_readlink
                0x000000000045dd28       0xc0 libbb/lib.a(xreadlink.o)
                0x000000000045dd28                xmalloc_readlink
 .text.xmalloc_follow_symlinks
                0x000000000045dde8      0x1b0 libbb/lib.a(xreadlink.o)
                0x000000000045dde8                xmalloc_follow_symlinks
 .text.xmalloc_readlink_or_warn
                0x000000000045df98       0x70 libbb/lib.a(xreadlink.o)
                0x000000000045df98                xmalloc_readlink_or_warn
 .text.xrealloc_vector_helper
                0x000000000045e008       0xbc libbb/lib.a(xrealloc_vector.o)
                0x000000000045e008                xrealloc_vector_helper
 .text.regcomp_or_errmsg
                0x000000000045e0c4       0xc0 libbb/lib.a(xregcomp.o)
                0x000000000045e0c4                regcomp_or_errmsg
 .text.xregcomp
                0x000000000045e184       0x5c libbb/lib.a(xregcomp.o)
                0x000000000045e184                xregcomp
 .text.bb_pstrcmp
                0x000000000045e1e0       0x24 libbb/lib.a(bb_qsort.o)
                0x000000000045e1e0                bb_pstrcmp
 .text.qsort_string_vector
                0x000000000045e204       0x1c libbb/lib.a(bb_qsort.o)
                0x000000000045e204                qsort_string_vector
 .text.concat_subpath_file
                0x000000000045e220       0x64 libbb/lib.a(concat_subpath_file.o)
                0x000000000045e220                concat_subpath_file
 *(SORT(.text.*personality*))
 *(SORT(.gnu.warning))
 *(SORT(.mips16.fn.*))
 *(SORT(.mips16.call.*))

.MIPS.stubs     0x000000000045e284     0x1080
 .MIPS.stubs    0x000000000045e284     0x1080 /opt/buildroot-gcc342/bin/../lib/gcc/mipsel-linux-uclibc/3.4.2/../../../../mipsel-linux-uclibc/lib/crt1.o
                0x000000000045e284                longjmp
                0x000000000045e294                chroot
                0x000000000045e2a4                strcpy
                0x000000000045e2b4                unsetenv
                0x000000000045e2c4                uttSemP
                0x000000000045e2d4                waitpid
                0x000000000045e2e4                getrlimit
                0x000000000045e2f4                pause
                0x000000000045e304                ioctl
                0x000000000045e314                if_indextoname
                0x000000000045e324                getgid
                0x000000000045e334                popen
                0x000000000045e344                sysconf
                0x000000000045e354                printf
                0x000000000045e364                vsprintf
                0x000000000045e374                utime
                0x000000000045e384                connect
                0x000000000045e394                ungetc
                0x000000000045e3a4                sigemptyset
                0x000000000045e3b4                shmctl
                0x000000000045e3c4                strerror
                0x000000000045e3d4                memrchr
                0x000000000045e3e4                geteuid
                0x000000000045e3f4                memmove
                0x000000000045e404                pclose
                0x000000000045e414                snprintf
                0x000000000045e424                mknod
                0x000000000045e434                getgrgid
                0x000000000045e444                times
                0x000000000045e454                getenv
                0x000000000045e464                fchmod
                0x000000000045e474                getegid
                0x000000000045e484                isblank
                0x000000000045e494                setlinebuf
                0x000000000045e4a4                setpriority
                0x000000000045e4b4                getpriority
                0x000000000045e4c4                bsearch
                0x000000000045e4d4                usleep
                0x000000000045e4e4                execve
                0x000000000045e4f4                semget
                0x000000000045e504                getpagesize
                0x000000000045e514                getpid
                0x000000000045e524                qsort
                0x000000000045e534                fchown
                0x000000000045e544                fscanf
                0x000000000045e554                fgets
                0x000000000045e564                shmat
                0x000000000045e574                memcpy
                0x000000000045e584                setitimer
                0x000000000045e594                execl
                0x000000000045e5a4                perror
                0x000000000045e5b4                readlink
                0x000000000045e5c4                puts
                0x000000000045e5d4                dup2
                0x000000000045e5e4                islower
                0x000000000045e5f4                tcflush
                0x000000000045e604                execle
                0x000000000045e614                getuid
                0x000000000045e624                semctl
                0x000000000045e634                system
                0x000000000045e644                feof
                0x000000000045e654                malloc
                0x000000000045e664                isatty
                0x000000000045e674                sleep
                0x000000000045e684                sysinfo
                0x000000000045e694                vsnprintf
                0x000000000045e6a4                strtoll
                0x000000000045e6b4                recvfrom
                0x000000000045e6c4                strtoul
                0x000000000045e6d4                ispunct
                0x000000000045e6e4                gethostbyaddr
                0x000000000045e6f4                rmdir
                0x000000000045e704                socket
                0x000000000045e714                select
                0x000000000045e724                init_module
                0x000000000045e734                readdir
                0x000000000045e744                lchown
                0x000000000045e754                delete_module
                0x000000000045e764                isspace
                0x000000000045e774                mempcpy
                0x000000000045e784                fflush
                0x000000000045e794                ftruncate
                0x000000000045e7a4                realpath
                0x000000000045e7b4                putenv
                0x000000000045e7c4                lseek
                0x000000000045e7d4                sigaddset
                0x000000000045e7e4                clearenv
                0x000000000045e7f4                chown
                0x000000000045e804                strncasecmp
                0x000000000045e814                freeaddrinfo
                0x000000000045e824                __fgetc_unlocked
                0x000000000045e834                chmod
                0x000000000045e844                getnameinfo
                0x000000000045e854                isxdigit
                0x000000000045e864                alarm
                0x000000000045e874                strtol
                0x000000000045e884                pipe
                0x000000000045e894                strnlen
                0x000000000045e8a4                uname
                0x000000000045e8b4                accept
                0x000000000045e8c4                rename
                0x000000000045e8d4                strrchr
                0x000000000045e8e4                setrlimit
                0x000000000045e8f4                strtod
                0x000000000045e904                write
                0x000000000045e914                fstat
                0x000000000045e924                fprintf
                0x000000000045e934                kill
                0x000000000045e944                ctime
                0x000000000045e954                strcat
                0x000000000045e964                bind
                0x000000000045e974                getmntent_r
                0x000000000045e984                inet_addr
                0x000000000045e994                vprintf
                0x000000000045e9a4                umount2
                0x000000000045e9b4                if_nametoindex
                0x000000000045e9c4                reboot
                0x000000000045e9d4                chdir
                0x000000000045e9e4                initgroups
                0x000000000045e9f4                shmdt
                0x000000000045ea04                endgrent
                0x000000000045ea14                setsockopt
                0x000000000045ea24                shmget
                0x000000000045ea34                memchr
                0x000000000045ea44                wait
                0x000000000045ea54                umask
                0x000000000045ea64                dprintf
                0x000000000045ea74                mktime
                0x000000000045ea84                ferror
                0x000000000045ea94                unlockpt
                0x000000000045eaa4                rand
                0x000000000045eab4                setgid
                0x000000000045eac4                signal
                0x000000000045ead4                read
                0x000000000045eae4                openlog
                0x000000000045eaf4                closelog
                0x000000000045eb04                isupper
                0x000000000045eb14                strncmp
                0x000000000045eb24                sethostname
                0x000000000045eb34                strncpy
                0x000000000045eb44                unlink
                0x000000000045eb54                sync
                0x000000000045eb64                setenv
                0x000000000045eb74                strcasecmp
                0x000000000045eb84                sendto
                0x000000000045eb94                isascii
                0x000000000045eba4                realloc
                0x000000000045ebb4                strtok
                0x000000000045ebc4                sigfillset
                0x000000000045ebd4                memcmp
                0x000000000045ebe4                listen
                0x000000000045ebf4                crypt
                0x000000000045ec04                fdopen
                0x000000000045ec14                fork
                0x000000000045ec24                sscanf
                0x000000000045ec34                execv
                0x000000000045ec44                setmntent
                0x000000000045ec54                isalpha
                0x000000000045ec64                setresuid
                0x000000000045ec74                execlp
                0x000000000045ec84                sigaction
                0x000000000045ec94                endmntent
                0x000000000045eca4                fread
                0x000000000045ecb4                __uClibc_main
                0x000000000045ecc4                strdup
                0x000000000045ecd4                inet_aton
                0x000000000045ece4                strtoull
                0x000000000045ecf4                regcomp
                0x000000000045ed04                gettimeofday
                0x000000000045ed14                fopen
                0x000000000045ed24                getopt
                0x000000000045ed34                localtime
                0x000000000045ed44                memset
                0x000000000045ed54                fnmatch
                0x000000000045ed64                srand
                0x000000000045ed74                clearerr
                0x000000000045ed84                fclose
                0x000000000045ed94                grantpt
                0x000000000045eda4                inet_ntoa
                0x000000000045edb4                getppid
                0x000000000045edc4                tcgetattr
                0x000000000045edd4                regexec
                0x000000000045ede4                time
                0x000000000045edf4                opendir
                0x000000000045ee04                getgroups
                0x000000000045ee14                isgraph
                0x000000000045ee24                poll
                0x000000000045ee34                syslog
                0x000000000045ee44                isalnum
                0x000000000045ee54                isprint
                0x000000000045ee64                mount
                0x000000000045ee74                strcmp
                0x000000000045ee84                ttyname
                0x000000000045ee94                getpwuid
                0x000000000045eea4                dup
                0x000000000045eeb4                __h_errno_location
                0x000000000045eec4                getcwd
                0x000000000045eed4                gethostbyname
                0x000000000045eee4                strsignal
                0x000000000045eef4                getpwnam
                0x000000000045ef04                getservbyname
                0x000000000045ef14                fgetc
                0x000000000045ef24                sprintf
                0x000000000045ef34                ether_aton_r
                0x000000000045ef44                difftime
                0x000000000045ef54                atexit
                0x000000000045ef64                ProfInit
                0x000000000045ef74                strcspn
                0x000000000045ef84                regerror
                0x000000000045ef94                umount
                0x000000000045efa4                mkstemp
                0x000000000045efb4                vfork
                0x000000000045efc4                strsep
                0x000000000045efd4                fsync
                0x000000000045efe4                fputc
                0x000000000045eff4                hstrerror
                0x000000000045f004                getaddrinfo
                0x000000000045f014                setresgid
                0x000000000045f024                strftime
                0x000000000045f034                fwrite
                0x000000000045f044                access
                0x000000000045f054                strptime
                0x000000000045f064                __errno_location
                0x000000000045f074                semop
                0x000000000045f084                exit
                0x000000000045f094                ether_ntoa
                0x000000000045f0a4                stime
                0x000000000045f0b4                klogctl
                0x000000000045f0c4                getgrnam
                0x000000000045f0d4                uttSemV
                0x000000000045f0e4                atoi
                0x000000000045f0f4                fileno
                0x000000000045f104                vsyslog
                0x000000000045f114                _setjmp
                0x000000000045f124                _exit
                0x000000000045f134                strspn
                0x000000000045f144                strlen
                0x000000000045f154                lseek64
                0x000000000045f164                open
                0x000000000045f174                ptsname_r
                0x000000000045f184                regfree
                0x000000000045f194                strchr
                0x000000000045f1a4                fputs
                0x000000000045f1b4                execvp
                0x000000000045f1c4                setsid
                0x000000000045f1d4                putpwent
                0x000000000045f1e4                closedir
                0x000000000045f1f4                vasprintf
                0x000000000045f204                strchrnul
                0x000000000045f214                fcntl
                0x000000000045f224                setuid
                0x000000000045f234                tcsetattr
                0x000000000045f244                mkdir
                0x000000000045f254                close
                0x000000000045f264                vfprintf
                0x000000000045f274                strpbrk
                0x000000000045f284                tcsetpgrp
                0x000000000045f294                sigsuspend
                0x000000000045f2a4                raise
                0x000000000045f2b4                free
                0x000000000045f2c4                sigprocmask
                0x000000000045f2d4                __fputc_unlocked
                0x000000000045f2e4                getsockname

.fini           0x000000000045f304       0x58
 *(SORT(.fini))
 .fini          0x000000000045f304       0x1c /opt/buildroot-gcc342/bin/../lib/gcc/mipsel-linux-uclibc/3.4.2/../../../../mipsel-linux-uclibc/lib/crti.o
                0x000000000045f304                _fini
 .fini          0x000000000045f320        0xc /opt/buildroot-gcc342/bin/../lib/gcc/mipsel-linux-uclibc/3.4.2/../../../../mipsel-linux-uclibc/lib/crtn.o
 .fini          0x000000000045f32c       0x30 /opt/buildroot-gcc342/bin/../lib/gcc/mipsel-linux-uclibc/3.4.2/crtbegin.o
                0x000000000045f35c                PROVIDE (__etext, .)
                0x000000000045f35c                PROVIDE (_etext, .)
                0x000000000045f35c                PROVIDE (etext, .)

.rodata         0x000000000045f360     0x88cc
 *(SORT(.rodata) .rodata.* .gnu.linkonce.r.*)
 .rodata        0x000000000045f360       0x40 networking/lib.a(arp.o)
 .rodata        0x000000000045f3a0       0x10 networking/lib.a(ifconfig.o)
 .rodata        0x000000000045f3b0       0x50 networking/lib.a(ping.o)
 .rodata        0x000000000045f400       0x40 networking/udhcp_multi/lib.a(dhcpc.o)
 .rodata        0x000000000045f440       0x20 networking/udhcp_multi/lib.a(dhcpd.o)
 .rodata        0x000000000045f460       0x30 networking/udhcp_multi/lib.a(files.o)
 .rodata        0x000000000045f490       0x30 networking/udhcp_multi/lib.a(script.o)
 .rodata        0x000000000045f4c0      0x280 shell/lib.a(ash.o)
 .rodata        0x000000000045f740       0x70 util-linux/lib.a(fdisk.o)
 .rodata        0x000000000045f7b0      0x150 editors/lib.a(awk.o)
 .rodata        0x000000000045f900      0x100 editors/lib.a(sed.o)
 .rodata        0x000000000045fa00      0x260 editors/lib.a(vi.o)
 .rodata        0x000000000045fc60      0x100 /opt/buildroot-gcc342/bin/../lib/gcc/mipsel-linux-uclibc/3.4.2/libgcc.a(_clz.o)
                0x000000000045fc60                __clz_tab
 .rodata.applet_nameofs
                0x000000000045fd60       0x9e libbb/lib.a(appletlib.o)
                0x000000000045fd60                applet_nameofs
 .rodata.applet_names
                0x000000000045fdfe      0x1c6 libbb/lib.a(appletlib.o)
                0x000000000045fdfe                applet_names
 .rodata.mode_mask
                0x000000000045ffc4       0x18 libbb/lib.a(appletlib.o)
 .rodata.config_file
                0x000000000045ffdc       0x12 libbb/lib.a(appletlib.o)
 .rodata.usage_messages
                0x000000000045ffee      0x7c1 libbb/lib.a(appletlib.o)
 *fill*         0x00000000004607af        0x1 00
 .rodata.str1.4
                0x00000000004607b0      0x350 libbb/lib.a(appletlib.o)
                                        0x364 (size before relaxing)
 .rodata.mode_chars.0
                0x0000000000460b00        0xf libbb/lib.a(appletlib.o)
 *fill*         0x0000000000460b0f        0x1 00
 .rodata.const_int_0
                0x0000000000460b10        0x4 libbb/lib.a(messages.o)
                0x0000000000460b10                const_int_0
 .rodata.const_int_1
                0x0000000000460b14        0x4 libbb/lib.a(messages.o)
                0x0000000000460b14                const_int_1
 .rodata.bb_PATH_root_path
                0x0000000000460b18       0x33 libbb/lib.a(messages.o)
                0x0000000000460b18                bb_PATH_root_path
 .rodata.bb_default_login_shell
                0x0000000000460b4b        0x9 libbb/lib.a(messages.o)
                0x0000000000460b4b                bb_default_login_shell
 .rodata.bb_dev_null
                0x0000000000460b54        0xa libbb/lib.a(messages.o)
                0x0000000000460b54                bb_dev_null
 .rodata.bb_path_motd_file
                0x0000000000460b5e        0xa libbb/lib.a(messages.o)
                0x0000000000460b5e                bb_path_motd_file
 .rodata.bb_path_group_file
                0x0000000000460b68        0xb libbb/lib.a(messages.o)
                0x0000000000460b68                bb_path_group_file
 .rodata.bb_path_passwd_file
                0x0000000000460b73        0xc libbb/lib.a(messages.o)
                0x0000000000460b73                bb_path_passwd_file
 .rodata.bb_str_default
                0x0000000000460b7f        0x8 libbb/lib.a(messages.o)
                0x0000000000460b7f                bb_str_default
 .rodata.bb_msg_standard_output
                0x0000000000460b87       0x10 libbb/lib.a(messages.o)
                0x0000000000460b87                bb_msg_standard_output
 .rodata.bb_msg_standard_input
                0x0000000000460b97        0xf libbb/lib.a(messages.o)
                0x0000000000460b97                bb_msg_standard_input
 .rodata.bb_msg_invalid_arg
                0x0000000000460ba6       0x1e libbb/lib.a(messages.o)
                0x0000000000460ba6                bb_msg_invalid_arg
 .rodata.bb_msg_requires_arg
                0x0000000000460bc4       0x18 libbb/lib.a(messages.o)
                0x0000000000460bc4                bb_msg_requires_arg
 .rodata.bb_msg_perm_denied_are_you_root
                0x0000000000460bdc       0x23 libbb/lib.a(messages.o)
                0x0000000000460bdc                bb_msg_perm_denied_are_you_root
 .rodata.bb_msg_can_not_create_raw_socket
                0x0000000000460bff       0x18 libbb/lib.a(messages.o)
                0x0000000000460bff                bb_msg_can_not_create_raw_socket
 .rodata.bb_msg_read_error
                0x0000000000460c17        0xb libbb/lib.a(messages.o)
                0x0000000000460c17                bb_msg_read_error
 .rodata.bb_msg_write_error
                0x0000000000460c22        0xc libbb/lib.a(messages.o)
                0x0000000000460c22                bb_msg_write_error
 .rodata.bb_msg_invalid_date
                0x0000000000460c2e       0x12 libbb/lib.a(messages.o)
                0x0000000000460c2e                bb_msg_invalid_date
 .rodata.bb_msg_memory_exhausted
                0x0000000000460c40       0x11 libbb/lib.a(messages.o)
                0x0000000000460c40                bb_msg_memory_exhausted
 .rodata.bb_banner
                0x0000000000460c51       0x2a libbb/lib.a(messages.o)
                0x0000000000460c51                bb_banner
 .rodata.str1.4
                0x0000000000460c7b        0x0 libbb/lib.a(perror_msg_and_die.o)
                                          0x4 (size before relaxing)
 .rodata.str1.4
                0x0000000000460c7b        0x0 libbb/lib.a(verror_msg.o)
                                          0xc (size before relaxing)
 .rodata.str1.4
                0x0000000000460c7b        0x0 libbb/lib.a(wfopen.o)
                                          0x8 (size before relaxing)
 *fill*         0x0000000000460c7b        0x1 00
 .rodata.str1.4
                0x0000000000460c7c       0x28 libbb/lib.a(xfuncs.o)
 .rodata.str1.4
                0x0000000000460ca4      0x141 libbb/lib.a(xfuncs_printf.o)
                                        0x144 (size before relaxing)
 .rodata.str1.4
                0x0000000000460de5        0x0 libbb/lib.a(perror_msg.o)
                                          0x4 (size before relaxing)
 *fill*         0x0000000000460de5        0x3 00
 .rodata.str1.4
                0x0000000000460de8       0x31 libbb/lib.a(read.o)
                                         0x34 (size before relaxing)
 *fill*         0x0000000000460e19        0x3 00
 .rodata.str1.4
                0x0000000000460e1c        0x5 libbb/lib.a(safe_poll.o)
                                          0x8 (size before relaxing)
 *fill*         0x0000000000460e21        0x3 00
 .rodata.str1.4
                0x0000000000460e24       0x46 loginutils/lib.a(addgroup.o)
                                         0x60 (size before relaxing)
 .rodata.prog.0
                0x0000000000460e6a        0x7 loginutils/lib.a(adduser.o)
 *fill*         0x0000000000460e71        0x3 00
 .rodata.str1.4
                0x0000000000460e74       0xba loginutils/lib.a(adduser.o)
                                         0xc4 (size before relaxing)
 *fill*         0x0000000000460f2e        0x2 00
 .rodata.str1.4
                0x0000000000460f30       0x6e loginutils/lib.a(chpasswd.o)
                                         0x70 (size before relaxing)
 *fill*         0x0000000000460f9e        0x2 00
 .rodata.str1.4
                0x0000000000460fa0       0x24 loginutils/lib.a(deluser.o)
                                         0x3c (size before relaxing)
 .rodata.init_chardata
                0x0000000000460fc4        0x4 loginutils/lib.a(getty.o)
 .rodata.opt_string
                0x0000000000460fc8       0x11 loginutils/lib.a(getty.o)
 *fill*         0x0000000000460fd9        0x3 00
 .rodata.erase.0
                0x0000000000460fdc        0xc loginutils/lib.a(getty.o)
 .rodata.str1.4
                0x0000000000460fe8       0xcd loginutils/lib.a(getty.o)
                                         0xe8 (size before relaxing)
 *fill*         0x00000000004610b5        0x3 00
 .rodata.str1.4
                0x00000000004610b8       0xd1 loginutils/lib.a(login.o)
                                         0xd4 (size before relaxing)
 *fill*         0x0000000000461189        0x3 00
 .rodata.str1.4
                0x000000000046118c      0x188 loginutils/lib.a(passwd.o)
                                        0x18c (size before relaxing)
 .rodata.DowAry
                0x0000000000461314       0x16 miscutils/lib.a(crond.o)
 .rodata.MonAry
                0x000000000046132a       0x25 miscutils/lib.a(crond.o)
 *fill*         0x000000000046134f        0x1 00
 .rodata.str1.4
                0x0000000000461350      0x1ec miscutils/lib.a(crond.o)
                                        0x1f4 (size before relaxing)
 .rodata.str1.4
                0x000000000046153c       0x1f miscutils/lib.a(eject.o)
                                         0x24 (size before relaxing)
 *fill*         0x000000000046155b        0x1 00
 .rodata.str1.4
                0x000000000046155c       0x87 modutils/lib.a(insmod.o)
                                         0x8c (size before relaxing)
 *fill*         0x00000000004615e3        0x1 00
 .rodata.str1.4
                0x00000000004615e4       0x5b modutils/lib.a(lsmod.o)
                                         0x68 (size before relaxing)
 *fill*         0x000000000046163f        0x1 00
 .rodata.str1.4
                0x0000000000461640        0xa modutils/lib.a(rmmod.o)
                                          0xc (size before relaxing)
 *fill*         0x000000000046164a        0x2 00
 .rodata.str1.4
                0x000000000046164c      0x23e networking/lib.a(arp.o)
                                        0x250 (size before relaxing)
 .rodata.options
                0x000000000046188a       0x2e networking/lib.a(arp.o)
 .rodata.arp_masks.0
                0x00000000004618b8        0xc networking/lib.a(arp.o)
 .rodata.arp_labels.1
                0x00000000004618c4       0x10 networking/lib.a(arp.o)
 .rodata.str1.4
                0x00000000004618d4      0x1da networking/lib.a(arping.o)
                                        0x200 (size before relaxing)
 .rodata.keywords.0
                0x0000000000461aae       0x74 networking/lib.a(brctl.o)
 .rodata.ops.1  0x0000000000461b22        0x4 networking/lib.a(brctl.o)
 .rodata.ops.2  0x0000000000461b26        0x3 networking/lib.a(brctl.o)
 *fill*         0x0000000000461b29        0x3 00
 .rodata.str1.4
                0x0000000000461b2c       0xd1 networking/lib.a(brctl.o)
                                         0xd4 (size before relaxing)
 *fill*         0x0000000000461bfd        0x3 00
 .rodata.cst8   0x0000000000461c00        0x8 networking/lib.a(brctl.o)
 .rodata.str1.4
                0x0000000000461c08       0xd9 networking/lib.a(ftpgetput.o)
                                         0xe8 (size before relaxing)
 *fill*         0x0000000000461ce1        0x3 00
 .rodata.str1.4
                0x0000000000461ce4       0x13 networking/lib.a(hostname.o)
                                         0x1c (size before relaxing)
 *fill*         0x0000000000461cf7        0x1 00
 .rodata.str1.4
                0x0000000000461cf8      0x107 networking/lib.a(ifconfig.o)
                                        0x110 (size before relaxing)
 *fill*         0x0000000000461dff        0x1 00
 .rodata.str1.4
                0x0000000000461e00      0x3c9 networking/lib.a(interface.o)
                                        0x3e8 (size before relaxing)
 .rodata.TRext  0x00000000004621c9        0xf networking/lib.a(interface.o)
 .rodata.ife_print_flags_strs.1
                0x00000000004621d8       0x6a networking/lib.a(interface.o)
 .rodata.ife_print_flags_mask.2
                0x0000000000462242       0x1a networking/lib.a(interface.o)
 .rodata.str1.4
                0x000000000046225c      0x296 networking/lib.a(ping.o)
                                        0x2a4 (size before relaxing)
 .rodata.tbl_verb
                0x00000000004624f2       0x15 networking/lib.a(route.o)
 *fill*         0x0000000000462507        0x1 00
 .rodata.flags_ipvx
                0x0000000000462508       0x10 networking/lib.a(route.o)
 .rodata.tbl_ipvx
                0x0000000000462518       0x68 networking/lib.a(route.o)
 .rodata.tbl_hash_net_host
                0x0000000000462580        0xf networking/lib.a(route.o)
 *fill*         0x000000000046258f        0x1 00
 .rodata.flagvals
                0x0000000000462590       0x14 networking/lib.a(route.o)
 .rodata.flagchars
                0x00000000004625a4        0x6 networking/lib.a(route.o)
 *fill*         0x00000000004625aa        0x2 00
 .rodata.str1.4
                0x00000000004625ac      0x1a7 networking/lib.a(route.o)
                                        0x1b0 (size before relaxing)
 *fill*         0x0000000000462753        0x1 00
 .rodata.str1.4
                0x0000000000462754       0x24 networking/lib.a(telnetd.o)
                                         0x30 (size before relaxing)
 .rodata.iacs_to_send.0
                0x0000000000462778        0xf networking/lib.a(telnetd.o)
 .rodata.errcode_str.0
                0x0000000000462787       0x79 networking/lib.a(tftp.o)
 .rodata.str1.4
                0x0000000000462800       0x60 networking/lib.a(tftp.o)
                                         0x64 (size before relaxing)
 .rodata.name_types
                0x0000000000462860       0x4c networking/lib.a(vconfig.o)
 .rodata.cmds   0x00000000004628ac       0x50 networking/lib.a(vconfig.o)
 .rodata.conf_file_name
                0x00000000004628fc       0x16 networking/lib.a(vconfig.o)
 *fill*         0x0000000000462912        0x2 00
 .rodata.str1.4
                0x0000000000462914       0x13 networking/lib.a(vconfig.o)
                                         0x14 (size before relaxing)
 *fill*         0x0000000000462927        0x1 00
 .rodata.str1.4
                0x0000000000462928      0x2ca networking/lib.a(wget.o)
                                        0x330 (size before relaxing)
 .rodata.keywords.0
                0x0000000000462bf2       0x33 networking/lib.a(wget.o)
 *fill*         0x0000000000462c25        0x3 00
 .rodata.str1.4
                0x0000000000462c28      0x22e networking/udhcp_multi/lib.a(dhcpc.o)
                                        0x23c (size before relaxing)
 *fill*         0x0000000000462e56        0x2 00
 .rodata.__func__.0
                0x0000000000462e58        0xc networking/udhcp_multi/lib.a(dhcpd.o)
 .rodata.str1.4
                0x0000000000462e64      0x1df networking/udhcp_multi/lib.a(dhcpd.o)
                                        0x1e0 (size before relaxing)
 *fill*         0x0000000000463043        0x1 00
 .rodata.str1.4
                0x0000000000463044      0x27d networking/udhcp_multi/lib.a(files.o)
                                        0x2ac (size before relaxing)
 *fill*         0x00000000004632c1        0x3 00
 .rodata.__func__.3
                0x00000000004632c4        0xc networking/udhcp_multi/lib.a(files.o)
 .rodata.__func__.0
                0x00000000004632d0       0x10 networking/udhcp_multi/lib.a(files.o)
 .rodata.__func__.2
                0x00000000004632e0       0x1c networking/udhcp_multi/lib.a(files.o)
 .rodata.__func__.0
                0x00000000004632fc       0x18 networking/udhcp_multi/lib.a(leases.o)
 .rodata.blank_chaddr.1
                0x0000000000463314       0x10 networking/udhcp_multi/lib.a(leases.o)
 .rodata.str1.4
                0x0000000000463324       0x54 networking/udhcp_multi/lib.a(leases.o)
                                         0x64 (size before relaxing)
 .rodata.dhcp_option_lengths
                0x0000000000463378        0xa networking/udhcp_multi/lib.a(options.o)
                0x0000000000463378                dhcp_option_lengths
 .rodata.dhcp_option_strings
                0x0000000000463382       0xfb networking/udhcp_multi/lib.a(options.o)
                0x0000000000463382                dhcp_option_strings
 *fill*         0x000000000046347d        0x3 00
 .rodata.dhcp_options
                0x0000000000463480       0x44 networking/udhcp_multi/lib.a(options.o)
                0x0000000000463480                dhcp_options
 .rodata.str1.4
                0x00000000004634c4       0x6d networking/udhcp_multi/lib.a(options.o)
                                         0x70 (size before relaxing)
 *fill*         0x0000000000463531        0x3 00
 .rodata.str1.4
                0x0000000000463534       0x60 networking/udhcp_multi/lib.a(packet.o)
                                         0x68 (size before relaxing)
 .rodata.max_option_length
                0x0000000000463594        0xc networking/udhcp_multi/lib.a(script.o)
 .rodata.str1.4
                0x00000000004635a0       0x7c networking/udhcp_multi/lib.a(script.o)
                                         0x9c (size before relaxing)
 .rodata.__func__.0
                0x000000000046361c        0xc networking/udhcp_multi/lib.a(serverpacket.o)
 .rodata.str1.4
                0x0000000000463628       0xa2 networking/udhcp_multi/lib.a(serverpacket.o)
                                         0xb4 (size before relaxing)
 *fill*         0x00000000004636ca        0x2 00
 .rodata.str1.4
                0x00000000004636cc       0x13 networking/udhcp_multi/lib.a(signalpipe.o)
                                         0x14 (size before relaxing)
 *fill*         0x00000000004636df        0x1 00
 .rodata.str1.4
                0x00000000004636e0       0x44 networking/udhcp_multi/lib.a(socket.o)
 .rodata.str1.4
                0x0000000000463724       0x22 networking/udhcp_multi/lib.a(arpping.o)
                                         0x24 (size before relaxing)
 *fill*         0x0000000000463746        0x2 00
 .rodata.str1.4
                0x0000000000463748       0xa1 networking/udhcp_multi/lib.a(clientpacket.o)
                                         0xa4 (size before relaxing)
 *fill*         0x00000000004637e9        0x3 00
 .rodata.filter_instr.0
                0x00000000004637ec       0x48 networking/udhcp_multi/lib.a(clientsocket.o)
 .rodata.MAC_BCAST_ADDR
                0x0000000000463834        0x6 networking/udhcp_multi/lib.a(common.o)
                0x0000000000463834                MAC_BCAST_ADDR
 *fill*         0x000000000046383a        0x2 00
 .rodata.str1.4
                0x000000000046383c       0x8f procps/lib.a(free.o)
                                         0x94 (size before relaxing)
 *fill*         0x00000000004638cb        0x1 00
 .rodata.str1.4
                0x00000000004638cc       0x9f procps/lib.a(kill.o)
                                         0xa4 (size before relaxing)
 *fill*         0x000000000046396b        0x1 00
 .rodata.str1.4
                0x000000000046396c       0x43 procps/lib.a(ps.o)
                                         0x44 (size before relaxing)
 *fill*         0x00000000004639af        0x1 00
 .rodata.str1.4
                0x00000000004639b0       0x68 procps/lib.a(uptime.o)
                                         0x70 (size before relaxing)
 .rodata.str1.4
                0x0000000000463a18      0x83c shell/lib.a(ash.o)
                                        0x89c (size before relaxing)
 .rodata.defifsvar
                0x0000000000464254        0x8 shell/lib.a(ash.o)
 .rodata.illnum
                0x000000000046425c       0x13 shell/lib.a(ash.o)
 *fill*         0x000000000046426f        0x1 00
 .rodata.syntax_index_table
                0x0000000000464270      0x104 shell/lib.a(ash.o)
 .rodata.S_I_T  0x0000000000464374       0x2c shell/lib.a(ash.o)
 .rodata.xxreadtoken_tokens
                0x00000000004643a0        0xa shell/lib.a(ash.o)
 .rodata.xxreadtoken_chars
                0x00000000004643aa        0x7 shell/lib.a(ash.o)
 .rodata.dolatstr
                0x00000000004643b1        0x5 shell/lib.a(ash.o)
 *fill*         0x00000000004643b6        0x2 00
 .rodata.limits_name
                0x00000000004643b8       0x80 shell/lib.a(ash.o)
 .rodata.limits_tbl
                0x0000000000464438       0x24 shell/lib.a(ash.o)
 .rodata.timescmd_str
                0x000000000046445c        0x9 shell/lib.a(ash.o)
 .rodata.snlfmt
                0x0000000000464465        0x4 shell/lib.a(ash.o)
 .rodata.homestr
                0x0000000000464469        0x5 shell/lib.a(ash.o)
 *fill*         0x000000000046446e        0x2 00
 .rodata.nodesize
                0x0000000000464470       0x34 shell/lib.a(ash.o)
 .rodata.qchars.9
                0x00000000004644a4        0x3 shell/lib.a(ash.o)
 .rodata.C_escapes.3
                0x00000000004644a7       0x12 shell/lib.a(ash.o)
 .rodata.types.2
                0x00000000004644b9        0x6 shell/lib.a(ash.o)
 .rodata.spclchars.10
                0x00000000004644bf        0x9 shell/lib.a(ash.o)
 .rodata.metachars.11
                0x00000000004644c8        0x4 shell/lib.a(ash.o)
 .rodata.permuser.5
                0x00000000004644cc        0x3 shell/lib.a(ash.o)
 .rodata.permmode.6
                0x00000000004644cf        0x3 shell/lib.a(ash.o)
 .rodata.permmask.7
                0x00000000004644d2       0x12 shell/lib.a(ash.o)
 .rodata.str1.4
                0x00000000004644e4        0xb sysklogd/lib.a(klogd.o)
                                         0x10 (size before relaxing)
 *fill*         0x00000000004644ef        0x1 00
 .rodata.init_sem
                0x00000000004644f0       0x14 sysklogd/lib.a(logread.o)
 .rodata.str1.4
                0x0000000000464504       0x89 sysklogd/lib.a(logread.o)
                                         0x90 (size before relaxing)
 *fill*         0x000000000046458d        0x3 00
 .rodata.str1.4
                0x0000000000464590      0x1c5 sysklogd/lib.a(syslogd_and_logger.o)
                                        0x1f0 (size before relaxing)
 .rodata.msg_part_already_defined
                0x0000000000464755       0x3d util-linux/lib.a(fdisk.o)
 .rodata.unable_to_seek
                0x0000000000464792       0x11 util-linux/lib.a(fdisk.o)
 .rodata.unable_to_read
                0x00000000004647a3       0x13 util-linux/lib.a(fdisk.o)
 .rodata.unable_to_open
                0x00000000004647b6        0xe util-linux/lib.a(fdisk.o)
 .rodata.str1.4
                0x00000000004647c4     0x12e8 util-linux/lib.a(fdisk.o)
                                       0x1318 (size before relaxing)
 .rodata.msg_building_new_label
                0x0000000000465aac       0x8f util-linux/lib.a(fdisk.o)
 *fill*         0x0000000000465b3b        0x1 00
 .rodata.str1.4
                0x0000000000465b3c       0xb0 util-linux/lib.a(mdev.o)
                                         0xc0 (size before relaxing)
 .rodata.mount_options
                0x0000000000465bec       0x20 util-linux/lib.a(mount.o)
 .rodata.mount_option_str
                0x0000000000465c0c       0x30 util-linux/lib.a(mount.o)
 .rodata.str1.4
                0x0000000000465c3c       0xb5 util-linux/lib.a(mount.o)
                                         0xd4 (size before relaxing)
 *fill*         0x0000000000465cf1        0x3 00
 .rodata.filesystems.0
                0x0000000000465cf4       0x24 util-linux/lib.a(mount.o)
 .rodata.str1.4
                0x0000000000465d18       0x66 util-linux/lib.a(umount.o)
                                         0x70 (size before relaxing)
 .rodata.str1.4
                0x0000000000465d7e        0x0 coreutils/lib.a(cat.o)
                                          0x4 (size before relaxing)
 *fill*         0x0000000000465d7e        0x2 00
 .rodata.str1.4
                0x0000000000465d80       0x1b coreutils/lib.a(chmod.o)
                                         0x1c (size before relaxing)
 *fill*         0x0000000000465d9b        0x1 00
 .rodata.str1.4
                0x0000000000465d9c       0x2d coreutils/lib.a(cp.o)
                                         0x30 (size before relaxing)
 *fill*         0x0000000000465dc9        0x3 00
 .rodata.str1.4
                0x0000000000465dcc       0xe2 coreutils/lib.a(date.o)
                                         0xec (size before relaxing)
 .rodata.isoformats.0
                0x0000000000465eae       0x1c coreutils/lib.a(date.o)
 *fill*         0x0000000000465eca        0x2 00
 .rodata.dd_suffixes
                0x0000000000465ecc       0x58 coreutils/lib.a(dd.o)
 .rodata.str1.4
                0x0000000000465f24       0x38 coreutils/lib.a(dd.o)
 .rodata.keywords.0
                0x0000000000465f5c       0x1a coreutils/lib.a(dd.o)
 *fill*         0x0000000000465f76        0x2 00
 .rodata.str1.4
                0x0000000000465f78        0x4 coreutils/lib.a(echo.o)
 .rodata.str1.4
                0x0000000000465f7c      0x101 coreutils/lib.a(expr.o)
                                        0x128 (size before relaxing)
 .rodata.keywords.0
                0x000000000046607d       0x21 coreutils/lib.a(expr.o)
 .rodata.header_fmt_str
                0x000000000046609e        0xd coreutils/lib.a(head.o)
 .rodata.head_opts
                0x00000000004660ab        0x3 coreutils/lib.a(head.o)
 .rodata.str1.4
                0x00000000004660ae        0x0 coreutils/lib.a(head.o)
                                          0x4 (size before relaxing)
 *fill*         0x00000000004660ae        0x2 00
 .rodata.str1.4
                0x00000000004660b0       0x31 coreutils/lib.a(id.o)
                                         0x38 (size before relaxing)
 *fill*         0x00000000004660e1        0x3 00
 .rodata.opt_flags
                0x00000000004660e4       0x3c coreutils/lib.a(ls.o)
 .rodata.ls_options
                0x0000000000466120       0x11 coreutils/lib.a(ls.o)
 *fill*         0x0000000000466131        0x3 00
 .rodata.str1.4
                0x0000000000466134       0x52 coreutils/lib.a(ls.o)
                                         0x60 (size before relaxing)
 *fill*         0x0000000000466186        0x2 00
 .rodata.str1.4
                0x0000000000466188       0x16 coreutils/lib.a(mkdir.o)
                                         0x18 (size before relaxing)
 *fill*         0x000000000046619e        0x2 00
 .rodata.modes_cubp
                0x00000000004661a0        0xc coreutils/lib.a(mknod.o)
 .rodata.modes_chars
                0x00000000004661ac        0x8 coreutils/lib.a(mknod.o)
 .rodata.fmt.0  0x00000000004661b4       0x2e coreutils/lib.a(mv.o)
 *fill*         0x00000000004661e2        0x2 00
 .rodata.str1.4
                0x00000000004661e4       0x57 coreutils/lib.a(mv.o)
                                         0x5c (size before relaxing)
 *fill*         0x000000000046623b        0x1 00
 .rodata.str1.4
                0x000000000046623c       0x10 coreutils/lib.a(nice.o)
                                         0x14 (size before relaxing)
 .rodata.str1.4
                0x000000000046624c       0x43 coreutils/lib.a(printf.o)
                                         0x48 (size before relaxing)
 *fill*         0x000000000046628f        0x1 00
 .rodata.str1.4
                0x0000000000466290       0x2a coreutils/lib.a(rm.o)
                                         0x2c (size before relaxing)
 .rodata.OPT_STR
                0x00000000004662ba       0x18 coreutils/lib.a(sort.o)
 *fill*         0x00000000004662d2        0x2 00
 .rodata.str1.4
                0x00000000004662d4       0x22 coreutils/lib.a(sort.o)
                                         0x30 (size before relaxing)
 *fill*         0x00000000004662f6        0x2 00
 .rodata.ops    0x00000000004662f8       0xf0 coreutils/lib.a(test.o)
 .rodata.str1.4
                0x00000000004663e8       0x68 coreutils/lib.a(test.o)
                                         0x80 (size before relaxing)
 .rodata.no_op.0
                0x0000000000466450        0x8 coreutils/lib.a(test.o)
 .rodata.str1.4
                0x0000000000466458        0x5 coreutils/lib.a(touch.o)
                                          0x8 (size before relaxing)
 *fill*         0x000000000046645d        0x3 00
 .rodata.utsname_offset
                0x0000000000466460        0xc coreutils/lib.a(uname.o)
 .rodata.options
                0x000000000046646c        0x8 coreutils/lib.a(uname.o)
 .rodata.str1.4
                0x0000000000466474        0x0 coreutils/lib.a(uname.o)
                                          0x8 (size before relaxing)
 .rodata.str1.4
                0x0000000000466474        0xd coreutils/lib.a(wc.o)
                                         0x28 (size before relaxing)
 *fill*         0x0000000000466481        0x3 00
 .rodata.str1.4
                0x0000000000466484       0x11 coreutils/libcoreutils/lib.a(cp_mv_stat.o)
                                         0x14 (size before relaxing)
 *fill*         0x0000000000466495        0x3 00
 .rodata.str1.4
                0x0000000000466498        0x3 coreutils/libcoreutils/lib.a(getopt_mk_fifo_nod.o)
                                          0x4 (size before relaxing)
 .rodata.vValues
                0x000000000046649b       0x18 editors/lib.a(awk.o)
 .rodata.vNames
                0x00000000004664b3       0x6b editors/lib.a(awk.o)
 .rodata.EMSG_INV_FMT
                0x000000000046651e       0x19 editors/lib.a(awk.o)
 *fill*         0x0000000000466537        0x1 00
 .rodata.PRIMES
                0x0000000000466538        0xa editors/lib.a(awk.o)
 *fill*         0x0000000000466542        0x2 00
 .rodata.tokeninfo
                0x0000000000466544      0x18c editors/lib.a(awk.o)
 .rodata.tokenlist
                0x00000000004666d0      0x1b9 editors/lib.a(awk.o)
 .rodata.EMSG_UNEXP_TOKEN
                0x0000000000466889       0x11 editors/lib.a(awk.o)
 .rodata.EMSG_UNEXP_EOS
                0x000000000046689a       0x19 editors/lib.a(awk.o)
 .rodata.EMSG_DIV_BY_ZERO
                0x00000000004668b3       0x11 editors/lib.a(awk.o)
 .rodata.EMSG_NO_MATH
                0x00000000004668c4       0x20 editors/lib.a(awk.o)
 .rodata.EMSG_UNDEF_FUNC
                0x00000000004668e4       0x1b editors/lib.a(awk.o)
 .rodata.EMSG_POSSIBLE_ERROR
                0x00000000004668ff       0x16 editors/lib.a(awk.o)
 .rodata.EMSG_NOT_ARRAY
                0x0000000000466915        0xd editors/lib.a(awk.o)
 .rodata.EMSG_TOO_FEW_ARGS
                0x0000000000466922       0x1e editors/lib.a(awk.o)
 .rodata.EMSG_INTERNAL_ERROR
                0x0000000000466940        0xf editors/lib.a(awk.o)
 *fill*         0x000000000046694f        0x1 00
 .rodata.str1.4
                0x0000000000466950       0xe4 editors/lib.a(awk.o)
                                        0x100 (size before relaxing)
 *fill*         0x0000000000466a34        0x4 00
 .rodata.cst8   0x0000000000466a38       0x28 editors/lib.a(awk.o)
                                         0x40 (size before relaxing)
 .rodata.semicolon_whitespace
                0x0000000000466a60        0x7 editors/lib.a(sed.o)
 *fill*         0x0000000000466a67        0x1 00
 .rodata.str1.4
                0x0000000000466a68      0x1eb editors/lib.a(sed.o)
                                        0x208 (size before relaxing)
 .rodata.SOn    0x0000000000466c53        0x5 editors/lib.a(vi.o)
 .rodata.SOs    0x0000000000466c58        0x5 editors/lib.a(vi.o)
 .rodata.Ceos   0x0000000000466c5d        0x5 editors/lib.a(vi.o)
 .rodata.bell   0x0000000000466c62        0x2 editors/lib.a(vi.o)
 .rodata.CMrc   0x0000000000466c64        0x9 editors/lib.a(vi.o)
 .rodata.Ceol   0x0000000000466c6d        0x5 editors/lib.a(vi.o)
 *fill*         0x0000000000466c72        0x2 00
 .rodata.esccmds.0
                0x0000000000466c74       0xac editors/lib.a(vi.o)
 .rodata.str1.4
                0x0000000000466d20      0x2a0 editors/lib.a(vi.o)
                                        0x2c8 (size before relaxing)
 .rodata.cmd_mode_indicator.1
                0x0000000000466fc0        0x5 editors/lib.a(vi.o)
 *fill*         0x0000000000466fc5        0x3 00
 .rodata.str1.4
                0x0000000000466fc8       0x51 findutils/lib.a(grep.o)
                                         0x60 (size before relaxing)
 *fill*         0x0000000000467019        0x3 00
 .rodata.magic.0
                0x000000000046701c        0xc init/lib.a(halt.o)
 .rodata.signals.1
                0x0000000000467028        0x4 init/lib.a(halt.o)
 .rodata.str1.4
                0x000000000046702c        0xe init/lib.a(halt.o)
                                         0x14 (size before relaxing)
 *fill*         0x000000000046703a        0x2 00
 .rodata.str1.4
                0x000000000046703c      0x396 init/lib.a(init.o)
                                        0x3dc (size before relaxing)
 .rodata.press_enter.1
                0x00000000004673d2       0x2f init/lib.a(init.o)
 .rodata.actions.0
                0x0000000000467401       0x40 init/lib.a(init.o)
 *fill*         0x0000000000467441        0x3 00
 .rodata.str1.4
                0x0000000000467444       0x2b libbb/lib.a(bb_pwd.o)
                                         0x40 (size before relaxing)
 *fill*         0x000000000046746f        0x1 00
 .rodata.str1.4
                0x0000000000467470       0x11 libbb/lib.a(change_identity.o)
                                         0x14 (size before relaxing)
 .rodata.str1.4
                0x0000000000467481        0x0 libbb/lib.a(concat_path_file.o)
                                         0x10 (size before relaxing)
 *fill*         0x0000000000467481        0x3 00
 .rodata.str1.4
                0x0000000000467484      0x15e libbb/lib.a(copy_file.o)
                                        0x18c (size before relaxing)
 *fill*         0x00000000004675e2        0x2 00
 .rodata.str1.4
                0x00000000004675e4        0xf libbb/lib.a(correct_password.o)
                                         0x10 (size before relaxing)
 *fill*         0x00000000004675f3        0x1 00
 .rodata.str1.4
                0x00000000004675f4       0x17 libbb/lib.a(die_if_bad_username.o)
                                         0x18 (size before relaxing)
 .rodata.str1.4
                0x000000000046760b        0x0 libbb/lib.a(getopt32.o)
                                          0x4 (size before relaxing)
 *fill*         0x000000000046760b        0x1 00
 .rodata.str1.4
                0x000000000046760c       0x48 libbb/lib.a(getpty.o)
 .rodata.str1.4
                0x0000000000467654        0x0 libbb/lib.a(inet_common.o)
                                          0x4 (size before relaxing)
 .rodata.str1.4
                0x0000000000467654        0x0 libbb/lib.a(inode_hash.o)
                                          0x4 (size before relaxing)
 .rodata.str1.4
                0x0000000000467654       0x4c libbb/lib.a(lineedit.o)
                                         0x5c (size before relaxing)
 .rodata.forbid
                0x00000000004676a0       0x96 libbb/lib.a(login.o)
 .rodata.fmtstr_t
                0x0000000000467736        0x9 libbb/lib.a(login.o)
 .rodata.fmtstr_d
                0x000000000046773f        0xd libbb/lib.a(login.o)
 .rodata.str1.4
                0x000000000046774c        0x9 libbb/lib.a(login.o)
                                         0x10 (size before relaxing)
 *fill*         0x0000000000467755        0x3 00
 .rodata.str1.4
                0x0000000000467758       0x35 libbb/lib.a(make_directory.o)
                                         0x38 (size before relaxing)
 *fill*         0x000000000046778d        0x3 00
 .rodata.mode_chars
                0x0000000000467790        0x8 libbb/lib.a(mode_string.o)
 .rodata.type_chars
                0x0000000000467798       0x10 libbb/lib.a(mode_string.o)
 .rodata.bb_path_mtab_file
                0x00000000004677a8        0xd libbb/lib.a(mtab_file.o)
                0x00000000004677a8                bb_path_mtab_file
 *fill*         0x00000000004677b5        0x3 00
 .rodata.str1.4
                0x00000000004677b8       0x28 libbb/lib.a(parse_config.o)
 .rodata.who_mask.0
                0x00000000004677e0       0x10 libbb/lib.a(parse_mode.o)
 .rodata.perm_mask.1
                0x00000000004677f0       0x18 libbb/lib.a(parse_mode.o)
 .rodata.who_chars.2
                0x0000000000467808        0x5 libbb/lib.a(parse_mode.o)
 .rodata.perm_chars.3
                0x000000000046780d        0x7 libbb/lib.a(parse_mode.o)
 .rodata.str1.4
                0x0000000000467814        0x0 libbb/lib.a(print_flags.o)
                                          0xc (size before relaxing)
 .rodata.charmap.0
                0x0000000000467814       0x12 libbb/lib.a(process_escape_sequence.o)
 *fill*         0x0000000000467826        0x2 00
 .rodata.str1.4
                0x0000000000467828       0x81 libbb/lib.a(procps.o)
                                         0x98 (size before relaxing)
 *fill*         0x00000000004678a9        0x3 00
 .rodata.str1.4
                0x00000000004678ac       0x66 libbb/lib.a(remove_file.o)
                                         0xa4 (size before relaxing)
 *fill*         0x0000000000467912        0x2 00
 .rodata.str1.4
                0x0000000000467914       0x12 libbb/lib.a(run_shell.o)
                                         0x18 (size before relaxing)
 .rodata.str1.4
                0x0000000000467926        0x0 libbb/lib.a(safe_gethostname.o)
                                          0x4 (size before relaxing)
 *fill*         0x0000000000467926        0x2 00
 .rodata.str1.4
                0x0000000000467928       0x2c libbb/lib.a(setup_environment.o)
                                         0x58 (size before relaxing)
 .rodata.speeds
                0x0000000000467954       0x50 libbb/lib.a(speed_table.o)
 .rodata.signals
                0x00000000004679a4       0xe0 libbb/lib.a(u_signal_names.o)
 .rodata.str1.4
                0x0000000000467a84        0x4 libbb/lib.a(u_signal_names.o)
 .rodata.str1.4
                0x0000000000467a88       0x46 libbb/lib.a(update_passwd.o)
                                         0x70 (size before relaxing)
 .rodata.bb_uuenc_tbl_base64
                0x0000000000467ace       0x43 libbb/lib.a(uuencode.o)
                0x0000000000467ace                bb_uuenc_tbl_base64
 .rodata.str1.4
                0x0000000000467b11        0x0 libbb/lib.a(vfork_daemon_rexec.o)
                                          0xc (size before relaxing)
 *fill*         0x0000000000467b11        0x3 00
 .rodata.str1.4
                0x0000000000467b14       0x17 libbb/lib.a(warn_ignoring_args.o)
                                         0x18 (size before relaxing)
 .rodata.str1.4
                0x0000000000467b2b        0x0 libbb/lib.a(wfopen_input.o)
                                          0x4 (size before relaxing)
 *fill*         0x0000000000467b2b        0x1 00
 .rodata.str1.4
                0x0000000000467b2c       0x61 libbb/lib.a(xatonum.o)
                                         0x64 (size before relaxing)
 *fill*         0x0000000000467b8d        0x3 00
 .rodata.str1.4
                0x0000000000467b90       0x56 libbb/lib.a(xconnect.o)
                                         0x58 (size before relaxing)
 *fill*         0x0000000000467be6        0x2 00
 .rodata.str1.4
                0x0000000000467be8        0x7 libbb/lib.a(xgetcwd.o)
                                          0x8 (size before relaxing)
 .rodata.str1.4
                0x0000000000467bef        0x0 libbb/lib.a(xgethostbyname.o)
                                          0x4 (size before relaxing)
 *fill*         0x0000000000467bef        0x1 00
 .rodata.str1.4
                0x0000000000467bf0       0x26 libbb/lib.a(xreadlink.o)
                                         0x28 (size before relaxing)
 *fill*         0x0000000000467c16        0x2 00
 .rodata.str1.4
                0x0000000000467c18       0x14 libbb/lib.a(xregcomp.o)

.rodata1
 *(SORT(.rodata1))

.sdata2
 *(SORT(.sdata2) .sdata2.* .gnu.linkonce.s2.*)

.sbss2
 *(SORT(.sbss2) .sbss2.* .gnu.linkonce.sb2.*)

.eh_frame_hdr   0x0000000000467c2c        0x0
 *(SORT(.eh_frame_hdr))

.eh_frame       0x0000000000467c2c        0x4
 *(SORT(.eh_frame))
 .eh_frame      0x0000000000467c2c        0x4 /opt/buildroot-gcc342/bin/../lib/gcc/mipsel-linux-uclibc/3.4.2/crtend.o

.gcc_except_table
 *(SORT(.gcc_except_table) .gcc_except_table.*)
                0x0000000000467c30                . = (ALIGN (0x40000) - ((0x40000 - .) & 0x3ffff))
                0x00000000004a8000                . = (0x40000 DATA_SEGMENT_ALIGN 0x1000)

.eh_frame
 *(SORT(.eh_frame))

.gcc_except_table
 *(SORT(.gcc_except_table) .gcc_except_table.*)

.tdata
 *(SORT(.tdata) .tdata.* .gnu.linkonce.td.*)

.tbss
 *(SORT(.tbss) .tbss.* .gnu.linkonce.tb.*)
 *(SORT(.tcommon))

.preinit_array  0x00000000004a8000        0x0
                0x00000000004a8000                PROVIDE (__preinit_array_start, .)
 *(SORT(.preinit_array))
                0x00000000004a8000                PROVIDE (__preinit_array_end, .)

.init_array     0x00000000004a8000        0x0
                0x00000000004a8000                PROVIDE (__init_array_start, .)
 *(SORT(.init_array.*))
 *(SORT(.init_array))
                0x00000000004a8000                PROVIDE (__init_array_end, .)

.fini_array     0x00000000004a8000        0x0
                0x00000000004a8000                PROVIDE (__fini_array_start, .)
 *(SORT(.fini_array))
 *(SORT(.fini_array.*))
                0x00000000004a8000                PROVIDE (__fini_array_end, .)

.ctors          0x00000000004a8000        0x8
 *crtbegin*.o(SORT(.ctors))
 *(SORT(EXCLUDE_FILE(*crtend*.o) .ctors))
 .ctors         0x00000000004a8000        0x4 /opt/buildroot-gcc342/bin/../lib/gcc/mipsel-linux-uclibc/3.4.2/crtbegin.o
 *(SORT(.ctors.*))
 *(SORT(.ctors))
 .ctors         0x00000000004a8004        0x4 /opt/buildroot-gcc342/bin/../lib/gcc/mipsel-linux-uclibc/3.4.2/crtend.o

.dtors          0x00000000004a8008        0x8
 *crtbegin*.o(SORT(.dtors))
 *(SORT(EXCLUDE_FILE(*crtend*.o) .dtors))
 .dtors         0x00000000004a8008        0x4 /opt/buildroot-gcc342/bin/../lib/gcc/mipsel-linux-uclibc/3.4.2/crtbegin.o
 *(SORT(.dtors.*))
 *(SORT(.dtors))
 .dtors         0x00000000004a800c        0x4 /opt/buildroot-gcc342/bin/../lib/gcc/mipsel-linux-uclibc/3.4.2/crtend.o

.jcr            0x00000000004a8010        0x4
 *(SORT(.jcr))
 .jcr           0x00000000004a8010        0x4 /opt/buildroot-gcc342/bin/../lib/gcc/mipsel-linux-uclibc/3.4.2/crtend.o

.data.rel.ro
 *(SORT(.data.rel.ro.local*) .gnu.linkonce.d.rel.ro.local.*)
 *(SORT(.data.rel.ro*) .gnu.linkonce.d.rel.ro.*)
                0x00000000004a8014                . = (. DATA_SEGMENT_RELRO_END 0x0)

.data           0x00000000004a8014      0x8e8
                0x00000000004a8014                _fdata = .
 *(SORT(.data) .data.* .gnu.linkonce.d.*)
 .data.rel.local
                0x00000000004a8014        0x4 /opt/buildroot-gcc342/bin/../lib/gcc/mipsel-linux-uclibc/3.4.2/crtbegin.o
 .data.applet_main
                0x00000000004a8018      0x13c libbb/lib.a(appletlib.o)
                0x00000000004a8018                applet_main
 .data.xfunc_error_retval
                0x00000000004a8154        0x4 libbb/lib.a(default_error_retval.o)
                0x00000000004a8154                xfunc_error_retval
 .data.msg_eol  0x00000000004a8158        0x4 libbb/lib.a(verror_msg.o)
                0x00000000004a8158                msg_eol
 .data.logmode  0x00000000004a815c        0x1 libbb/lib.a(verror_msg.o)
                0x00000000004a815c                logmode
 *fill*         0x00000000004a815d        0x3 00
 .data.device   0x00000000004a8160        0x4 networking/lib.a(arp.o)
 .data.Arg1Opt  0x00000000004a8164       0x48 networking/lib.a(ifconfig.o)
 .data.OptArray
                0x00000000004a81ac       0x88 networking/lib.a(ifconfig.o)
 .data.ss_fmt   0x00000000004a8234        0xc networking/lib.a(interface.o)
 .data.if_port_text
                0x00000000004a8240       0x20 networking/lib.a(interface.o)
 .data.aftypes  0x00000000004a8260        0xc networking/lib.a(interface.o)
 .data.unspec_aftype
                0x00000000004a826c       0x2c networking/lib.a(interface.o)
 .data.inet_aftype
                0x00000000004a8298       0x2c networking/lib.a(interface.o)
 .data.hwtypes  0x00000000004a82c4       0x14 networking/lib.a(interface.o)
 .data.unspec_hwtype
                0x00000000004a82d8       0x20 networking/lib.a(interface.o)
 .data.ppp_hwtype
                0x00000000004a82f8       0x20 networking/lib.a(interface.o)
 .data.ether_hwtype
                0x00000000004a8318       0x20 networking/lib.a(interface.o)
 .data.loop_hwtype
                0x00000000004a8338       0x20 networking/lib.a(interface.o)
 .data.loginpath
                0x00000000004a8358        0x4 networking/lib.a(telnetd.o)
 .data.issuefile
                0x00000000004a835c        0x4 networking/lib.a(telnetd.o)
 .data.sockfd   0x00000000004a8360        0x4 networking/udhcp_multi/lib.a(dhcpc.o)
 .data.keywords
                0x00000000004a8364      0x130 networking/udhcp_multi/lib.a(files.o)
 .data.nullAddr.1
                0x00000000004a8494       0x10 networking/udhcp_multi/lib.a(files.o)
 .data.utt_dhcpSrvNm
                0x00000000004a84a4        0x4 networking/udhcp_multi/lib.a(leases.o)
                0x00000000004a84a4                utt_dhcpSrvNm
 .data.filter_prog.1
                0x00000000004a84a8        0x8 networking/udhcp_multi/lib.a(clientsocket.o)
 .data.varinit_data
                0x00000000004a84b0       0x48 shell/lib.a(ash.o)
 .data.g_parsefile
                0x00000000004a84f8        0x4 shell/lib.a(ash.o)
 .data.builtinloc
                0x00000000004a84fc        0x4 shell/lib.a(ash.o)
 .data.plinno   0x00000000004a8500        0x4 shell/lib.a(ash.o)
 .data.optletters_optnames
                0x00000000004a8504       0x38 shell/lib.a(ash.o)
 .data.tokname_array
                0x00000000004a853c       0x74 shell/lib.a(ash.o)
 .data.builtintab
                0x00000000004a85b0       0xf0 shell/lib.a(ash.o)
 .data.null_bltin.12
                0x00000000004a86a0        0x8 shell/lib.a(ash.o)
 .data.arg_REPLY.8
                0x00000000004a86a8        0x8 shell/lib.a(ash.o)
 .data.facilitynames
                0x00000000004a86b0       0xb8 sysklogd/lib.a(syslogd_and_logger.o)
                0x00000000004a86b0                facilitynames
 .data.prioritynames
                0x00000000004a8768       0x68 sysklogd/lib.a(syslogd_and_logger.o)
                0x00000000004a8768                prioritynames
 .data.init_data
                0x00000000004a87d0       0x38 sysklogd/lib.a(syslogd_and_logger.o)
 .data.i386_sys_types
                0x00000000004a8808       0xc4 util-linux/lib.a(fdisk.o)
 .data.init_action_list
                0x00000000004a88cc        0x4 init/lib.a(init.o)
 .data.environment
                0x00000000004a88d0       0x14 init/lib.a(init.o)
 .data.log_console
                0x00000000004a88e4        0x4 init/lib.a(init.o)
 .data.got_cont
                0x00000000004a88e8        0x4 init/lib.a(init.o)
 .data.log_fd.2
                0x00000000004a88ec        0x4 init/lib.a(init.o)
 .data.bb_argv_dash
                0x00000000004a88f0        0x8 libbb/lib.a(getopt32.o)
                0x00000000004a88f0                bb_argv_dash
 .data.cache.0  0x00000000004a88f8        0x4 libbb/lib.a(inet_common.o)
 *(SORT(.gnu.linkonce.d.*personality*))

.rld_map        0x00000000004a88fc        0x4
 .rld_map       0x00000000004a88fc        0x4 /opt/buildroot-gcc342/bin/../lib/gcc/mipsel-linux-uclibc/3.4.2/../../../../mipsel-linux-uclibc/lib/crt1.o
                0x00000000004a88fc                __RLD_MAP

.data1
 *(SORT(.data1))
                0x00000000004a8900                . = .
                0x00000000004b08f0                _gp = (ALIGN (0x10) + 0x7ff0)

.got            0x00000000004a8900      0xbe8
 *(SORT(.got.plt))
 *(SORT(.got))
 .got           0x00000000004a8900      0xbe8 /opt/buildroot-gcc342/bin/../lib/gcc/mipsel-linux-uclibc/3.4.2/../../../../mipsel-linux-uclibc/lib/crt1.o
                0x00000000004a8900                _GLOBAL_OFFSET_TABLE_

.sdata
 *(SORT(.sdata) .sdata.* .gnu.linkonce.s.*)

.lit8
 *(SORT(.lit8))

.lit4
 *(SORT(.lit4))
                0x00000000004a94e8                _edata = .
                0x00000000004a94e8                PROVIDE (edata, .)
                0x00000000004a94e8                __bss_start = .
                0x00000000004a94e8                _fbss = .

.sbss
 *(SORT(.dynsbss))
 *(SORT(.sbss) .sbss.* .gnu.linkonce.sb.*)
 *(SORT(.scommon))

.bss            0x00000000004a94f0     0x11d8
 *(SORT(.dynbss))
 *(SORT(.bss) .bss.* .gnu.linkonce.b.*)
 .bss           0x00000000004a94f0       0x20 /opt/buildroot-gcc342/bin/../lib/gcc/mipsel-linux-uclibc/3.4.2/crtbegin.o
 .bss.applet_name
                0x00000000004a9510        0x4 libbb/lib.a(appletlib.o)
                0x00000000004a9510                applet_name
 .bss.ruid      0x00000000004a9514        0x4 libbb/lib.a(appletlib.o)
 .bss.suid_config
                0x00000000004a9518        0x4 libbb/lib.a(appletlib.o)
 .bss.suid_cfg_readable
                0x00000000004a951c        0x1 libbb/lib.a(appletlib.o)
 *fill*         0x00000000004a951d        0x3 00
 .bss.bb_common_bufsiz1
                0x00000000004a9520     0x1008 libbb/lib.a(messages.o)
                0x00000000004a9520                bb_common_bufsiz1
 .bss.ptr_to_globals
                0x00000000004aa528        0x4 libbb/lib.a(ptr_to_globals.o)
                0x00000000004aa528                ptr_to_globals
 .bss.bb_errno  0x00000000004aa52c        0x4 libbb/lib.a(ptr_to_globals.o)
                0x00000000004aa52c                bb_errno
 .bss.die_sleep
                0x00000000004aa530        0x4 libbb/lib.a(xfunc_die.o)
                0x00000000004aa530                die_sleep
 .bss.local_buf
                0x00000000004aa534        0xc libbb/lib.a(xfuncs.o)
 .bss.short_tty
                0x00000000004aa540        0x4 loginutils/lib.a(login.o)
 .bss.ap        0x00000000004aa544        0x4 networking/lib.a(arp.o)
 .bss.hw        0x00000000004aa548        0x4 networking/lib.a(arp.o)
 .bss.sockfd    0x00000000004aa54c        0x4 networking/lib.a(arp.o)
 .bss.hw_set    0x00000000004aa550        0x1 networking/lib.a(arp.o)
 *fill*         0x00000000004aa551        0x3 00
 .bss.buff.3    0x00000000004aa554        0x4 networking/lib.a(interface.o)
 .bss.buff.4    0x00000000004aa558        0x4 networking/lib.a(interface.o)
 .bss.proc_read.0
                0x00000000004aa55c        0x1 networking/lib.a(interface.o)
 *fill*         0x00000000004aa55d        0x3 00
 .bss.buff.5    0x00000000004aa560        0x4 networking/lib.a(interface.o)
 .bss.interface_opt_a
                0x00000000004aa564        0x1 networking/lib.a(interface.o)
                0x00000000004aa564                interface_opt_a
 *fill*         0x00000000004aa565        0x3 00
 .bss.int_list  0x00000000004aa568        0x4 networking/lib.a(interface.o)
 .bss.int_last  0x00000000004aa56c        0x4 networking/lib.a(interface.o)
 .bss.maxfd     0x00000000004aa570        0x4 networking/lib.a(telnetd.o)
 .bss.sessions  0x00000000004aa574        0x4 networking/lib.a(telnetd.o)
 .bss.listen_mode
                0x00000000004aa578        0x1 networking/udhcp_multi/lib.a(dhcpc.o)
 .bss.state     0x00000000004aa579        0x1 networking/udhcp_multi/lib.a(dhcpc.o)
 *fill*         0x00000000004aa57a        0x2 00
 .bss.leases    0x00000000004aa57c        0x4 networking/udhcp_multi/lib.a(dhcpd.o)
                0x00000000004aa57c                leases
 .bss.signal_pipe
                0x00000000004aa580        0x8 networking/udhcp_multi/lib.a(signalpipe.o)
 .bss.initialized.0
                0x00000000004aa588        0x1 networking/udhcp_multi/lib.a(clientpacket.o)
 *fill*         0x00000000004aa589        0x3 00
 .bss.buf.4     0x00000000004aa58c       0x10 shell/lib.a(ash.o)
 .bss.is_interactive.0
                0x00000000004aa59c        0x1 shell/lib.a(ash.o)
 .bss.did_banner.1
                0x00000000004aa59d        0x1 shell/lib.a(ash.o)
 *fill*         0x00000000004aa59e        0x2 00
 .bss.basepf    0x00000000004aa5a0       0x30 shell/lib.a(ash.o)
 .bss.startlinno
                0x00000000004aa5d0        0x4 shell/lib.a(ash.o)
 .bss.commandname
                0x00000000004aa5d4        0x4 shell/lib.a(ash.o)
 .bss.cmdenviron
                0x00000000004aa5d8        0x4 shell/lib.a(ash.o)
 .bss.exitstatus
                0x00000000004aa5dc        0x1 shell/lib.a(ash.o)
 *fill*         0x00000000004aa5dd        0x3 00
 .bss.argptr    0x00000000004aa5e0        0x4 shell/lib.a(ash.o)
 .bss.optionarg
                0x00000000004aa5e4        0x4 shell/lib.a(ash.o)
 .bss.optptr    0x00000000004aa5e8        0x4 shell/lib.a(ash.o)
 .bss.pathopt   0x00000000004aa5ec        0x4 shell/lib.a(ash.o)
 .bss.doprompt  0x00000000004aa5f0        0x1 shell/lib.a(ash.o)
 .bss.needprompt
                0x00000000004aa5f1        0x1 shell/lib.a(ash.o)
 *fill*         0x00000000004aa5f2        0x2 00
 .bss.line_input_state
                0x00000000004aa5f4        0x4 shell/lib.a(ash.o)
 .bss.cmdedit_prompt
                0x00000000004aa5f8        0x4 shell/lib.a(ash.o)
 .bss.jobtab    0x00000000004aa5fc        0x4 shell/lib.a(ash.o)
 .bss.njobs     0x00000000004aa600        0x4 shell/lib.a(ash.o)
 .bss.curjob    0x00000000004aa604        0x4 shell/lib.a(ash.o)
 .bss.jobless   0x00000000004aa608        0x4 shell/lib.a(ash.o)
 .bss.expdest   0x00000000004aa60c        0x4 shell/lib.a(ash.o)
 .bss.argbackq  0x00000000004aa610        0x4 shell/lib.a(ash.o)
 .bss.ifsfirst  0x00000000004aa614       0x10 shell/lib.a(ash.o)
 .bss.ifslastp  0x00000000004aa624        0x4 shell/lib.a(ash.o)
 .bss.exparg    0x00000000004aa628        0x8 shell/lib.a(ash.o)
 .bss.back_exitstatus
                0x00000000004aa630        0x1 shell/lib.a(ash.o)
 *fill*         0x00000000004aa631        0x3 00
 .bss.expdir    0x00000000004aa634        0x4 shell/lib.a(ash.o)
 .bss.cmdtable  0x00000000004aa638        0x4 shell/lib.a(ash.o)
 .bss.lastcmdentry
                0x00000000004aa63c        0x4 shell/lib.a(ash.o)
 .bss.funcblocksize
                0x00000000004aa640        0x4 shell/lib.a(ash.o)
 .bss.funcstringsize
                0x00000000004aa644        0x4 shell/lib.a(ash.o)
 .bss.funcblock
                0x00000000004aa648        0x4 shell/lib.a(ash.o)
 .bss.funcstring
                0x00000000004aa64c        0x4 shell/lib.a(ash.o)
 .bss.evalskip  0x00000000004aa650        0x4 shell/lib.a(ash.o)
 .bss.skipcount
                0x00000000004aa654        0x4 shell/lib.a(ash.o)
 .bss.funcnest  0x00000000004aa658        0x4 shell/lib.a(ash.o)
 .bss.loopnest  0x00000000004aa65c        0x4 shell/lib.a(ash.o)
 .bss.localvars
                0x00000000004aa660        0x4 shell/lib.a(ash.o)
 .bss.parsenleft
                0x00000000004aa664        0x4 shell/lib.a(ash.o)
 .bss.parselleft
                0x00000000004aa668        0x4 shell/lib.a(ash.o)
 .bss.parsenextc
                0x00000000004aa66c        0x4 shell/lib.a(ash.o)
 .bss.checkkwd  0x00000000004aa670        0x1 shell/lib.a(ash.o)
 .bss.tokpushback
                0x00000000004aa671        0x1 shell/lib.a(ash.o)
 .bss.parsebackquote
                0x00000000004aa672        0x1 shell/lib.a(ash.o)
 .bss.quoteflag
                0x00000000004aa673        0x1 shell/lib.a(ash.o)
 .bss.lasttoken
                0x00000000004aa674        0x1 shell/lib.a(ash.o)
 *fill*         0x00000000004aa675        0x3 00
 .bss.heredoclist
                0x00000000004aa678        0x4 shell/lib.a(ash.o)
 .bss.wordtext  0x00000000004aa67c        0x4 shell/lib.a(ash.o)
 .bss.backquotelist
                0x00000000004aa680        0x4 shell/lib.a(ash.o)
 .bss.redirnode
                0x00000000004aa684        0x4 shell/lib.a(ash.o)
 .bss.heredoc   0x00000000004aa688        0x4 shell/lib.a(ash.o)
 .bss.ash_ptr_to_globals_misc
                0x00000000004aa68c        0x4 shell/lib.a(ash_ptr_hack.o)
                0x00000000004aa68c                ash_ptr_to_globals_misc
 .bss.ash_ptr_to_globals_memstack
                0x00000000004aa690        0x4 shell/lib.a(ash_ptr_hack.o)
                0x00000000004aa690                ash_ptr_to_globals_memstack
 .bss.ash_ptr_to_globals_var
                0x00000000004aa694        0x4 shell/lib.a(ash_ptr_hack.o)
                0x00000000004aa694                ash_ptr_to_globals_var
 .bss.test_ptr_to_statics
                0x00000000004aa698        0x4 coreutils/lib.a(test_ptr_hack.o)
                0x00000000004aa698                test_ptr_to_statics
 .bss.passwd.0  0x00000000004aa69c        0x4 libbb/lib.a(bb_askpass.o)
 .bss.opt_complementary
                0x00000000004aa6a0        0x4 libbb/lib.a(getopt32.o)
                0x00000000004aa6a0                opt_complementary
 .bss.option_mask32
                0x00000000004aa6a4        0x4 libbb/lib.a(getopt32.o)
                0x00000000004aa6a4                option_mask32
 .bss.ino_dev_hashtable
                0x00000000004aa6a8        0x4 libbb/lib.a(inode_hash.o)
 .bss.lineedit_ptr_to_statics
                0x00000000004aa6ac        0x4 libbb/lib.a(lineedit_ptr_hack.o)
                0x00000000004aa6ac                lineedit_ptr_to_statics
 .bss.buf.0     0x00000000004aa6b0        0xc libbb/lib.a(mode_string.o)
 .bss.wrote_pidfile
                0x00000000004aa6bc        0x1 libbb/lib.a(pidfile.o)
                0x00000000004aa6bc                wrote_pidfile
 *fill*         0x00000000004aa6bd        0x3 00
 .bss.username  0x00000000004aa6c0        0x8 libbb/lib.a(procps.o)
 *(SORT(COMMON))
                0x00000000004aa6c8                . = ALIGN ((. != 0x0)?0x4:0x1)
                0x00000000004aa6c8                . = ALIGN (0x4)
                0x00000000004aa6c8                . = ALIGN (0x4)
                0x00000000004aa6c8                _end = .
                0x00000000004aa6c8                PROVIDE (end, .)
                0x00000000004aa6c8                . = DATA_SEGMENT_END (.)

.stab
 *(SORT(.stab))

.stabstr
 *(SORT(.stabstr))

.stab.excl
 *(SORT(.stab.excl))

.stab.exclstr
 *(SORT(.stab.exclstr))

.stab.index
 *(SORT(.stab.index))

.stab.indexstr
 *(SORT(.stab.indexstr))

.comment        0x0000000000000000      0xd14
 *(SORT(.comment))
 .comment       0x0000000000000000       0x12 /opt/buildroot-gcc342/bin/../lib/gcc/mipsel-linux-uclibc/3.4.2/../../../../mipsel-linux-uclibc/lib/crti.o
 .comment       0x0000000000000012       0x12 /opt/buildroot-gcc342/bin/../lib/gcc/mipsel-linux-uclibc/3.4.2/crtbegin.o
 .comment       0x0000000000000024       0x12 applets/built-in.o
 .comment       0x0000000000000036       0x12 libbb/lib.a(appletlib.o)
 .comment       0x0000000000000048       0x12 libbb/lib.a(bb_basename.o)
 .comment       0x000000000000005a       0x12 libbb/lib.a(bb_strtonum.o)
 .comment       0x000000000000006c       0x12 libbb/lib.a(default_error_retval.o)
 .comment       0x000000000000007e       0x12 libbb/lib.a(error_msg_and_die.o)
 .comment       0x0000000000000090       0x12 libbb/lib.a(full_write.o)
 .comment       0x00000000000000a2       0x12 libbb/lib.a(get_last_path_component.o)
 .comment       0x00000000000000b4       0x12 libbb/lib.a(last_char_is.o)
 .comment       0x00000000000000c6       0x12 libbb/lib.a(messages.o)
 .comment       0x00000000000000d8       0x12 libbb/lib.a(perror_msg_and_die.o)
 .comment       0x00000000000000ea       0x12 libbb/lib.a(ptr_to_globals.o)
 .comment       0x00000000000000fc       0x12 libbb/lib.a(safe_write.o)
 .comment       0x000000000000010e       0x12 libbb/lib.a(skip_whitespace.o)
 .comment       0x0000000000000120       0x12 libbb/lib.a(verror_msg.o)
 .comment       0x0000000000000132       0x12 libbb/lib.a(wfopen.o)
 .comment       0x0000000000000144       0x12 libbb/lib.a(xfunc_die.o)
 .comment       0x0000000000000156       0x12 libbb/lib.a(xfuncs.o)
 .comment       0x0000000000000168       0x12 libbb/lib.a(xfuncs_printf.o)
 .comment       0x000000000000017a       0x12 libbb/lib.a(copyfd.o)
 .comment       0x000000000000018c       0x12 libbb/lib.a(error_msg.o)
 .comment       0x000000000000019e       0x12 libbb/lib.a(perror_msg.o)
 .comment       0x00000000000001b0       0x12 libbb/lib.a(read.o)
 .comment       0x00000000000001c2       0x12 libbb/lib.a(safe_poll.o)
 .comment       0x00000000000001d4       0x12 loginutils/lib.a(addgroup.o)
 .comment       0x00000000000001e6       0x12 loginutils/lib.a(adduser.o)
 .comment       0x00000000000001f8       0x12 loginutils/lib.a(chpasswd.o)
 .comment       0x000000000000020a       0x12 loginutils/lib.a(deluser.o)
 .comment       0x000000000000021c       0x12 loginutils/lib.a(getty.o)
 .comment       0x000000000000022e       0x12 loginutils/lib.a(login.o)
 .comment       0x0000000000000240       0x12 loginutils/lib.a(passwd.o)
 .comment       0x0000000000000252       0x12 miscutils/lib.a(crond.o)
 .comment       0x0000000000000264       0x12 miscutils/lib.a(eject.o)
 .comment       0x0000000000000276       0x12 modutils/lib.a(insmod.o)
 .comment       0x0000000000000288       0x12 modutils/lib.a(lsmod.o)
 .comment       0x000000000000029a       0x12 modutils/lib.a(rmmod.o)
 .comment       0x00000000000002ac       0x12 networking/lib.a(arp.o)
 .comment       0x00000000000002be       0x12 networking/lib.a(arping.o)
 .comment       0x00000000000002d0       0x12 networking/lib.a(brctl.o)
 .comment       0x00000000000002e2       0x12 networking/lib.a(ftpgetput.o)
 .comment       0x00000000000002f4       0x12 networking/lib.a(hostname.o)
 .comment       0x0000000000000306       0x12 networking/lib.a(ifconfig.o)
 .comment       0x0000000000000318       0x12 networking/lib.a(interface.o)
 .comment       0x000000000000032a       0x12 networking/lib.a(ping.o)
 .comment       0x000000000000033c       0x12 networking/lib.a(route.o)
 .comment       0x000000000000034e       0x12 networking/lib.a(telnetd.o)
 .comment       0x0000000000000360       0x12 networking/lib.a(tftp.o)
 .comment       0x0000000000000372       0x12 networking/lib.a(vconfig.o)
 .comment       0x0000000000000384       0x12 networking/lib.a(wget.o)
 .comment       0x0000000000000396       0x12 networking/udhcp_multi/lib.a(dhcpc.o)
 .comment       0x00000000000003a8       0x12 networking/udhcp_multi/lib.a(dhcpd.o)
 .comment       0x00000000000003ba       0x12 networking/udhcp_multi/lib.a(files.o)
 .comment       0x00000000000003cc       0x12 networking/udhcp_multi/lib.a(leases.o)
 .comment       0x00000000000003de       0x12 networking/udhcp_multi/lib.a(options.o)
 .comment       0x00000000000003f0       0x12 networking/udhcp_multi/lib.a(packet.o)
 .comment       0x0000000000000402       0x12 networking/udhcp_multi/lib.a(script.o)
 .comment       0x0000000000000414       0x12 networking/udhcp_multi/lib.a(serverpacket.o)
 .comment       0x0000000000000426       0x12 networking/udhcp_multi/lib.a(signalpipe.o)
 .comment       0x0000000000000438       0x12 networking/udhcp_multi/lib.a(socket.o)
 .comment       0x000000000000044a       0x12 networking/udhcp_multi/lib.a(static_leases.o)
 .comment       0x000000000000045c       0x12 networking/udhcp_multi/lib.a(arpping.o)
 .comment       0x000000000000046e       0x12 networking/udhcp_multi/lib.a(clientpacket.o)
 .comment       0x0000000000000480       0x12 networking/udhcp_multi/lib.a(clientsocket.o)
 .comment       0x0000000000000492       0x12 networking/udhcp_multi/lib.a(common.o)
 .comment       0x00000000000004a4       0x12 procps/lib.a(free.o)
 .comment       0x00000000000004b6       0x12 procps/lib.a(kill.o)
 .comment       0x00000000000004c8       0x12 procps/lib.a(ps.o)
 .comment       0x00000000000004da       0x12 procps/lib.a(uptime.o)
 .comment       0x00000000000004ec       0x12 shell/lib.a(ash.o)
 .comment       0x00000000000004fe       0x12 shell/lib.a(ash_ptr_hack.o)
 .comment       0x0000000000000510       0x12 sysklogd/lib.a(klogd.o)
 .comment       0x0000000000000522       0x12 sysklogd/lib.a(logread.o)
 .comment       0x0000000000000534       0x12 sysklogd/lib.a(syslogd_and_logger.o)
 .comment       0x0000000000000546       0x12 util-linux/lib.a(fdisk.o)
 .comment       0x0000000000000558       0x12 util-linux/lib.a(mdev.o)
 .comment       0x000000000000056a       0x12 util-linux/lib.a(mount.o)
 .comment       0x000000000000057c       0x12 util-linux/lib.a(umount.o)
 .comment       0x000000000000058e       0x12 coreutils/lib.a(basename.o)
 .comment       0x00000000000005a0       0x12 coreutils/lib.a(cat.o)
 .comment       0x00000000000005b2       0x12 coreutils/lib.a(chmod.o)
 .comment       0x00000000000005c4       0x12 coreutils/lib.a(cp.o)
 .comment       0x00000000000005d6       0x12 coreutils/lib.a(date.o)
 .comment       0x00000000000005e8       0x12 coreutils/lib.a(dd.o)
 .comment       0x00000000000005fa       0x12 coreutils/lib.a(echo.o)
 .comment       0x000000000000060c       0x12 coreutils/lib.a(expr.o)
 .comment       0x000000000000061e       0x12 coreutils/lib.a(head.o)
 .comment       0x0000000000000630       0x12 coreutils/lib.a(id.o)
 .comment       0x0000000000000642       0x12 coreutils/lib.a(ls.o)
 .comment       0x0000000000000654       0x12 coreutils/lib.a(mkdir.o)
 .comment       0x0000000000000666       0x12 coreutils/lib.a(mknod.o)
 .comment       0x0000000000000678       0x12 coreutils/lib.a(mv.o)
 .comment       0x000000000000068a       0x12 coreutils/lib.a(nice.o)
 .comment       0x000000000000069c       0x12 coreutils/lib.a(printf.o)
 .comment       0x00000000000006ae       0x12 coreutils/lib.a(pwd.o)
 .comment       0x00000000000006c0       0x12 coreutils/lib.a(rm.o)
 .comment       0x00000000000006d2       0x12 coreutils/lib.a(sleep.o)
 .comment       0x00000000000006e4       0x12 coreutils/lib.a(sort.o)
 .comment       0x00000000000006f6       0x12 coreutils/lib.a(sync.o)
 .comment       0x0000000000000708       0x12 coreutils/lib.a(test.o)
 .comment       0x000000000000071a       0x12 coreutils/lib.a(test_ptr_hack.o)
 .comment       0x000000000000072c       0x12 coreutils/lib.a(touch.o)
 .comment       0x000000000000073e       0x12 coreutils/lib.a(uname.o)
 .comment       0x0000000000000750       0x12 coreutils/lib.a(wc.o)
 .comment       0x0000000000000762       0x12 coreutils/libcoreutils/lib.a(cp_mv_stat.o)
 .comment       0x0000000000000774       0x12 coreutils/libcoreutils/lib.a(getopt_mk_fifo_nod.o)
 .comment       0x0000000000000786       0x12 editors/lib.a(awk.o)
 .comment       0x0000000000000798       0x12 editors/lib.a(sed.o)
 .comment       0x00000000000007aa       0x12 editors/lib.a(vi.o)
 .comment       0x00000000000007bc       0x12 findutils/lib.a(grep.o)
 .comment       0x00000000000007ce       0x12 init/lib.a(halt.o)
 .comment       0x00000000000007e0       0x12 init/lib.a(init.o)
 .comment       0x00000000000007f2       0x12 libbb/lib.a(ask_confirmation.o)
 .comment       0x0000000000000804       0x12 libbb/lib.a(bb_askpass.o)
 .comment       0x0000000000000816       0x12 libbb/lib.a(bb_do_delay.o)
 .comment       0x0000000000000828       0x12 libbb/lib.a(bb_pwd.o)
 .comment       0x000000000000083a       0x12 libbb/lib.a(change_identity.o)
 .comment       0x000000000000084c       0x12 libbb/lib.a(compare_string_array.o)
 .comment       0x000000000000085e       0x12 libbb/lib.a(concat_path_file.o)
 .comment       0x0000000000000870       0x12 libbb/lib.a(copy_file.o)
 .comment       0x0000000000000882       0x12 libbb/lib.a(correct_password.o)
 .comment       0x0000000000000894       0x12 libbb/lib.a(create_icmp_socket.o)
 .comment       0x00000000000008a6       0x12 libbb/lib.a(crypt_make_salt.o)
 .comment       0x00000000000008b8       0x12 libbb/lib.a(device_open.o)
 .comment       0x00000000000008ca       0x12 libbb/lib.a(die_if_bad_username.o)
 .comment       0x00000000000008dc       0x12 libbb/lib.a(fclose_nonstdin.o)
 .comment       0x00000000000008ee       0x12 libbb/lib.a(fflush_stdout_and_exit.o)
 .comment       0x0000000000000900       0x12 libbb/lib.a(find_pid_by_name.o)
 .comment       0x0000000000000912       0x12 libbb/lib.a(get_line_from_file.o)
 .comment       0x0000000000000924       0x12 libbb/lib.a(getopt32.o)
 .comment       0x0000000000000936       0x12 libbb/lib.a(getpty.o)
 .comment       0x0000000000000948       0x12 libbb/lib.a(herror_msg_and_die.o)
 .comment       0x000000000000095a       0x12 libbb/lib.a(inet_common.o)
 .comment       0x000000000000096c       0x12 libbb/lib.a(info_msg.o)
 .comment       0x000000000000097e       0x12 libbb/lib.a(inode_hash.o)
 .comment       0x0000000000000990       0x12 libbb/lib.a(lineedit.o)
 .comment       0x00000000000009a2       0x12 libbb/lib.a(lineedit_ptr_hack.o)
 .comment       0x00000000000009b4       0x12 libbb/lib.a(llist.o)
 .comment       0x00000000000009c6       0x12 libbb/lib.a(login.o)
 .comment       0x00000000000009d8       0x12 libbb/lib.a(make_directory.o)
 .comment       0x00000000000009ea       0x12 libbb/lib.a(makedev.o)
 .comment       0x00000000000009fc       0x12 libbb/lib.a(match_fstype.o)
 .comment       0x0000000000000a0e       0x12 libbb/lib.a(mode_string.o)
 .comment       0x0000000000000a20       0x12 libbb/lib.a(mtab_file.o)
 .comment       0x0000000000000a32       0x12 libbb/lib.a(parse_config.o)
 .comment       0x0000000000000a44       0x12 libbb/lib.a(parse_mode.o)
 .comment       0x0000000000000a56       0x12 libbb/lib.a(perror_nomsg_and_die.o)
 .comment       0x0000000000000a68       0x12 libbb/lib.a(pidfile.o)
 .comment       0x0000000000000a7a       0x12 libbb/lib.a(print_flags.o)
 .comment       0x0000000000000a8c       0x12 libbb/lib.a(process_escape_sequence.o)
 .comment       0x0000000000000a9e       0x12 libbb/lib.a(procps.o)
 .comment       0x0000000000000ab0       0x12 libbb/lib.a(pw_encrypt.o)
 .comment       0x0000000000000ac2       0x12 libbb/lib.a(recursive_action.o)
 .comment       0x0000000000000ad4       0x12 libbb/lib.a(remove_file.o)
 .comment       0x0000000000000ae6       0x12 libbb/lib.a(run_shell.o)
 .comment       0x0000000000000af8       0x12 libbb/lib.a(safe_gethostname.o)
 .comment       0x0000000000000b0a       0x12 libbb/lib.a(safe_strncpy.o)
 .comment       0x0000000000000b1c       0x12 libbb/lib.a(setup_environment.o)
 .comment       0x0000000000000b2e       0x12 libbb/lib.a(signals.o)
 .comment       0x0000000000000b40       0x12 libbb/lib.a(simplify_path.o)
 .comment       0x0000000000000b52       0x12 libbb/lib.a(speed_table.o)
 .comment       0x0000000000000b64       0x12 libbb/lib.a(str_tolower.o)
 .comment       0x0000000000000b76       0x12 libbb/lib.a(time.o)
 .comment       0x0000000000000b88       0x12 libbb/lib.a(u_signal_names.o)
 .comment       0x0000000000000b9a       0x12 libbb/lib.a(update_passwd.o)
 .comment       0x0000000000000bac       0x12 libbb/lib.a(uuencode.o)
 .comment       0x0000000000000bbe       0x12 libbb/lib.a(vfork_daemon_rexec.o)
 .comment       0x0000000000000bd0       0x12 libbb/lib.a(warn_ignoring_args.o)
 .comment       0x0000000000000be2       0x12 libbb/lib.a(wfopen_input.o)
 .comment       0x0000000000000bf4       0x12 libbb/lib.a(write.o)
 .comment       0x0000000000000c06       0x12 libbb/lib.a(xatonum.o)
 .comment       0x0000000000000c18       0x12 libbb/lib.a(xconnect.o)
 .comment       0x0000000000000c2a       0x12 libbb/lib.a(xgetcwd.o)
 .comment       0x0000000000000c3c       0x12 libbb/lib.a(xgethostbyname.o)
 .comment       0x0000000000000c4e       0x12 libbb/lib.a(xreadlink.o)
 .comment       0x0000000000000c60       0x12 libbb/lib.a(xrealloc_vector.o)
 .comment       0x0000000000000c72       0x12 libbb/lib.a(xregcomp.o)
 .comment       0x0000000000000c84       0x12 libbb/lib.a(bb_qsort.o)
 .comment       0x0000000000000c96       0x12 libbb/lib.a(concat_subpath_file.o)
 .comment       0x0000000000000ca8       0x12 /opt/buildroot-gcc342/bin/../lib/gcc/mipsel-linux-uclibc/3.4.2/libgcc.a(_divdi3.o)
 .comment       0x0000000000000cba       0x12 /opt/buildroot-gcc342/bin/../lib/gcc/mipsel-linux-uclibc/3.4.2/libgcc.a(_udivdi3.o)
 .comment       0x0000000000000ccc       0x12 /opt/buildroot-gcc342/bin/../lib/gcc/mipsel-linux-uclibc/3.4.2/libgcc.a(_umoddi3.o)
 .comment       0x0000000000000cde       0x12 /opt/buildroot-gcc342/bin/../lib/gcc/mipsel-linux-uclibc/3.4.2/libgcc.a(_clz.o)
 .comment       0x0000000000000cf0       0x12 /opt/buildroot-gcc342/bin/../lib/gcc/mipsel-linux-uclibc/3.4.2/crtend.o
 .comment       0x0000000000000d02       0x12 /opt/buildroot-gcc342/bin/../lib/gcc/mipsel-linux-uclibc/3.4.2/../../../../mipsel-linux-uclibc/lib/crtn.o

.debug
 *(SORT(.debug))

.line
 *(SORT(.line))

.debug_srcinfo
 *(SORT(.debug_srcinfo))

.debug_sfnames
 *(SORT(.debug_sfnames))

.debug_aranges  0x0000000000000000       0x60
 *(SORT(.debug_aranges))
 .debug_aranges
                0x0000000000000000       0x20 /opt/buildroot-gcc342/bin/../lib/gcc/mipsel-linux-uclibc/3.4.2/libgcc.a(_divdi3.o)
 .debug_aranges
                0x0000000000000020       0x20 /opt/buildroot-gcc342/bin/../lib/gcc/mipsel-linux-uclibc/3.4.2/libgcc.a(_udivdi3.o)
 .debug_aranges
                0x0000000000000040       0x20 /opt/buildroot-gcc342/bin/../lib/gcc/mipsel-linux-uclibc/3.4.2/libgcc.a(_umoddi3.o)

.debug_pubnames
                0x0000000000000000       0x7f
 *(SORT(.debug_pubnames))
 .debug_pubnames
                0x0000000000000000       0x1f /opt/buildroot-gcc342/bin/../lib/gcc/mipsel-linux-uclibc/3.4.2/libgcc.a(_divdi3.o)
 .debug_pubnames
                0x000000000000001f       0x20 /opt/buildroot-gcc342/bin/../lib/gcc/mipsel-linux-uclibc/3.4.2/libgcc.a(_udivdi3.o)
 .debug_pubnames
                0x000000000000003f       0x20 /opt/buildroot-gcc342/bin/../lib/gcc/mipsel-linux-uclibc/3.4.2/libgcc.a(_umoddi3.o)
 .debug_pubnames
                0x000000000000005f       0x20 /opt/buildroot-gcc342/bin/../lib/gcc/mipsel-linux-uclibc/3.4.2/libgcc.a(_clz.o)

.debug_info     0x0000000000000000     0x1312
 *(SORT(.debug_info) .gnu.linkonce.wi.*)
 .debug_info    0x0000000000000000      0x63b /opt/buildroot-gcc342/bin/../lib/gcc/mipsel-linux-uclibc/3.4.2/libgcc.a(_divdi3.o)
 .debug_info    0x000000000000063b      0x5ef /opt/buildroot-gcc342/bin/../lib/gcc/mipsel-linux-uclibc/3.4.2/libgcc.a(_udivdi3.o)
 .debug_info    0x0000000000000c2a      0x63a /opt/buildroot-gcc342/bin/../lib/gcc/mipsel-linux-uclibc/3.4.2/libgcc.a(_umoddi3.o)
 .debug_info    0x0000000000001264       0xae /opt/buildroot-gcc342/bin/../lib/gcc/mipsel-linux-uclibc/3.4.2/libgcc.a(_clz.o)

.debug_abbrev   0x0000000000000000      0x4a2
 *(SORT(.debug_abbrev))
 .debug_abbrev  0x0000000000000000      0x167 /opt/buildroot-gcc342/bin/../lib/gcc/mipsel-linux-uclibc/3.4.2/libgcc.a(_divdi3.o)
 .debug_abbrev  0x0000000000000167      0x158 /opt/buildroot-gcc342/bin/../lib/gcc/mipsel-linux-uclibc/3.4.2/libgcc.a(_udivdi3.o)
 .debug_abbrev  0x00000000000002bf      0x184 /opt/buildroot-gcc342/bin/../lib/gcc/mipsel-linux-uclibc/3.4.2/libgcc.a(_umoddi3.o)
 .debug_abbrev  0x0000000000000443       0x5f /opt/buildroot-gcc342/bin/../lib/gcc/mipsel-linux-uclibc/3.4.2/libgcc.a(_clz.o)

.debug_line     0x0000000000000000      0x42a
 *(SORT(.debug_line))
 .debug_line    0x0000000000000000      0x133 /opt/buildroot-gcc342/bin/../lib/gcc/mipsel-linux-uclibc/3.4.2/libgcc.a(_divdi3.o)
 .debug_line    0x0000000000000133      0x134 /opt/buildroot-gcc342/bin/../lib/gcc/mipsel-linux-uclibc/3.4.2/libgcc.a(_udivdi3.o)
 .debug_line    0x0000000000000267      0x13a /opt/buildroot-gcc342/bin/../lib/gcc/mipsel-linux-uclibc/3.4.2/libgcc.a(_umoddi3.o)
 .debug_line    0x00000000000003a1       0x89 /opt/buildroot-gcc342/bin/../lib/gcc/mipsel-linux-uclibc/3.4.2/libgcc.a(_clz.o)

.debug_frame    0x0000000000000000       0x70
 *(SORT(.debug_frame))
 .debug_frame   0x0000000000000000       0x20 /opt/buildroot-gcc342/bin/../lib/gcc/mipsel-linux-uclibc/3.4.2/libgcc.a(_divdi3.o)
 .debug_frame   0x0000000000000020       0x20 /opt/buildroot-gcc342/bin/../lib/gcc/mipsel-linux-uclibc/3.4.2/libgcc.a(_udivdi3.o)
 .debug_frame   0x0000000000000040       0x30 /opt/buildroot-gcc342/bin/../lib/gcc/mipsel-linux-uclibc/3.4.2/libgcc.a(_umoddi3.o)

.debug_str      0x0000000000000000      0x157
 *(SORT(.debug_str))
 .debug_str     0x0000000000000000      0x143 /opt/buildroot-gcc342/bin/../lib/gcc/mipsel-linux-uclibc/3.4.2/libgcc.a(_divdi3.o)
                                        0x16f (size before relaxing)
 .debug_str     0x0000000000000143        0xa /opt/buildroot-gcc342/bin/../lib/gcc/mipsel-linux-uclibc/3.4.2/libgcc.a(_udivdi3.o)
                                        0x166 (size before relaxing)
 .debug_str     0x000000000000014d        0xa /opt/buildroot-gcc342/bin/../lib/gcc/mipsel-linux-uclibc/3.4.2/libgcc.a(_umoddi3.o)
                                        0x166 (size before relaxing)
 .debug_str     0x0000000000000157        0x0 /opt/buildroot-gcc342/bin/../lib/gcc/mipsel-linux-uclibc/3.4.2/libgcc.a(_clz.o)
                                         0xf8 (size before relaxing)

.debug_loc
 *(SORT(.debug_loc))

.debug_macinfo
 *(SORT(.debug_macinfo))

.debug_weaknames
 *(SORT(.debug_weaknames))

.debug_funcnames
 *(SORT(.debug_funcnames))

.debug_typenames
 *(SORT(.debug_typenames))

.debug_varnames
 *(SORT(.debug_varnames))

.gptab.sdata
 *(SORT(.gptab.data))
 *(SORT(.gptab.sdata))

.gptab.sbss
 *(SORT(.gptab.bss))
 *(SORT(.gptab.sbss))

/DISCARD/
 *(SORT(.note.GNU-stack))
OUTPUT(busybox_unstripped elf32-tradlittlemips)

.pdr            0x0000000000000000     0x6ae0
 .pdr           0x0000000000000000       0x40 /opt/buildroot-gcc342/bin/../lib/gcc/mipsel-linux-uclibc/3.4.2/../../../../mipsel-linux-uclibc/lib/crti.o
 .pdr           0x0000000000000040      0x120 libbb/lib.a(appletlib.o)
 .pdr           0x0000000000000160       0x20 libbb/lib.a(bb_basename.o)
 .pdr           0x0000000000000180       0x80 libbb/lib.a(bb_strtonum.o)
 .pdr           0x0000000000000200       0x20 libbb/lib.a(error_msg_and_die.o)
 .pdr           0x0000000000000220       0x20 libbb/lib.a(full_write.o)
 .pdr           0x0000000000000240       0x40 libbb/lib.a(get_last_path_component.o)
 .pdr           0x0000000000000280       0x20 libbb/lib.a(last_char_is.o)
 .pdr           0x00000000000002a0       0x40 libbb/lib.a(perror_msg_and_die.o)
 .pdr           0x00000000000002e0       0x20 libbb/lib.a(safe_write.o)
 .pdr           0x0000000000000300       0x40 libbb/lib.a(skip_whitespace.o)
 .pdr           0x0000000000000340       0x20 libbb/lib.a(verror_msg.o)
 .pdr           0x0000000000000360       0x80 libbb/lib.a(wfopen.o)
 .pdr           0x00000000000003e0       0x20 libbb/lib.a(xfunc_die.o)
 .pdr           0x0000000000000400      0x120 libbb/lib.a(xfuncs.o)
 .pdr           0x0000000000000520      0x480 libbb/lib.a(xfuncs_printf.o)
 .pdr           0x00000000000009a0       0x40 libbb/lib.a(copyfd.o)
 .pdr           0x00000000000009e0       0x20 libbb/lib.a(error_msg.o)
 .pdr           0x0000000000000a00       0x60 libbb/lib.a(perror_msg.o)
 .pdr           0x0000000000000a60      0x100 libbb/lib.a(read.o)
 .pdr           0x0000000000000b60       0x20 libbb/lib.a(safe_poll.o)
 .pdr           0x0000000000000b80       0x20 loginutils/lib.a(addgroup.o)
 .pdr           0x0000000000000ba0       0x20 loginutils/lib.a(adduser.o)
 .pdr           0x0000000000000bc0       0x20 loginutils/lib.a(chpasswd.o)
 .pdr           0x0000000000000be0       0x40 loginutils/lib.a(deluser.o)
 .pdr           0x0000000000000c20       0x40 loginutils/lib.a(getty.o)
 .pdr           0x0000000000000c60       0x40 loginutils/lib.a(login.o)
 .pdr           0x0000000000000ca0       0x40 loginutils/lib.a(passwd.o)
 .pdr           0x0000000000000ce0      0x100 miscutils/lib.a(crond.o)
 .pdr           0x0000000000000de0       0x20 miscutils/lib.a(eject.o)
 .pdr           0x0000000000000e00       0x20 modutils/lib.a(insmod.o)
 .pdr           0x0000000000000e20       0x20 modutils/lib.a(lsmod.o)
 .pdr           0x0000000000000e40       0x20 modutils/lib.a(rmmod.o)
 .pdr           0x0000000000000e60       0x20 networking/lib.a(arp.o)
 .pdr           0x0000000000000e80       0x60 networking/lib.a(arping.o)
 .pdr           0x0000000000000ee0       0x40 networking/lib.a(brctl.o)
 .pdr           0x0000000000000f20       0x60 networking/lib.a(ftpgetput.o)
 .pdr           0x0000000000000f80       0x40 networking/lib.a(hostname.o)
 .pdr           0x0000000000000fc0       0x20 networking/lib.a(ifconfig.o)
 .pdr           0x0000000000000fe0      0x240 networking/lib.a(interface.o)
 .pdr           0x0000000000001220       0x60 networking/lib.a(ping.o)
 .pdr           0x0000000000001280       0x60 networking/lib.a(route.o)
 .pdr           0x00000000000012e0       0x80 networking/lib.a(telnetd.o)
 .pdr           0x0000000000001360       0x20 networking/lib.a(tftp.o)
 .pdr           0x0000000000001380       0x40 networking/lib.a(vconfig.o)
 .pdr           0x00000000000013c0      0x100 networking/lib.a(wget.o)
 .pdr           0x00000000000014c0       0xa0 networking/udhcp_multi/lib.a(dhcpc.o)
 .pdr           0x0000000000001560       0x20 networking/udhcp_multi/lib.a(dhcpd.o)
 .pdr           0x0000000000001580      0x140 networking/udhcp_multi/lib.a(files.o)
 .pdr           0x00000000000016c0       0xc0 networking/udhcp_multi/lib.a(leases.o)
 .pdr           0x0000000000001780       0x80 networking/udhcp_multi/lib.a(options.o)
 .pdr           0x0000000000001800       0xc0 networking/udhcp_multi/lib.a(packet.o)
 .pdr           0x00000000000018c0       0x40 networking/udhcp_multi/lib.a(script.o)
 .pdr           0x0000000000001900       0xe0 networking/udhcp_multi/lib.a(serverpacket.o)
 .pdr           0x00000000000019e0       0x80 networking/udhcp_multi/lib.a(signalpipe.o)
 .pdr           0x0000000000001a60       0x60 networking/udhcp_multi/lib.a(socket.o)
 .pdr           0x0000000000001ac0       0x60 networking/udhcp_multi/lib.a(static_leases.o)
 .pdr           0x0000000000001b20       0x20 networking/udhcp_multi/lib.a(arpping.o)
 .pdr           0x0000000000001b40      0x100 networking/udhcp_multi/lib.a(clientpacket.o)
 .pdr           0x0000000000001c40       0x20 networking/udhcp_multi/lib.a(clientsocket.o)
 .pdr           0x0000000000001c60       0x20 networking/udhcp_multi/lib.a(common.o)
 .pdr           0x0000000000001c80       0x20 procps/lib.a(free.o)
 .pdr           0x0000000000001ca0       0x20 procps/lib.a(kill.o)
 .pdr           0x0000000000001cc0       0x20 procps/lib.a(ps.o)
 .pdr           0x0000000000001ce0       0x20 procps/lib.a(uptime.o)
 .pdr           0x0000000000001d00     0x1680 shell/lib.a(ash.o)
 .pdr           0x0000000000003380       0x40 sysklogd/lib.a(klogd.o)
 .pdr           0x00000000000033c0       0x80 sysklogd/lib.a(logread.o)
 .pdr           0x0000000000003440       0xc0 sysklogd/lib.a(syslogd_and_logger.o)
 .pdr           0x0000000000003500      0x580 util-linux/lib.a(fdisk.o)
 .pdr           0x0000000000003a80       0x80 util-linux/lib.a(mdev.o)
 .pdr           0x0000000000003b00       0xa0 util-linux/lib.a(mount.o)
 .pdr           0x0000000000003ba0       0x20 util-linux/lib.a(umount.o)
 .pdr           0x0000000000003bc0       0x20 coreutils/lib.a(basename.o)
 .pdr           0x0000000000003be0       0x40 coreutils/lib.a(cat.o)
 .pdr           0x0000000000003c20       0x40 coreutils/lib.a(chmod.o)
 .pdr           0x0000000000003c60       0x20 coreutils/lib.a(cp.o)
 .pdr           0x0000000000003c80       0x40 coreutils/lib.a(date.o)
 .pdr           0x0000000000003cc0       0x60 coreutils/lib.a(dd.o)
 .pdr           0x0000000000003d20       0x20 coreutils/lib.a(echo.o)
 .pdr           0x0000000000003d40      0x220 coreutils/lib.a(expr.o)
 .pdr           0x0000000000003f60       0x20 coreutils/lib.a(head.o)
 .pdr           0x0000000000003f80       0x40 coreutils/lib.a(id.o)
 .pdr           0x0000000000003fc0       0xe0 coreutils/lib.a(ls.o)
 .pdr           0x00000000000040a0       0x20 coreutils/lib.a(mkdir.o)
 .pdr           0x00000000000040c0       0x20 coreutils/lib.a(mknod.o)
 .pdr           0x00000000000040e0       0x20 coreutils/lib.a(mv.o)
 .pdr           0x0000000000004100       0x20 coreutils/lib.a(nice.o)
 .pdr           0x0000000000004120       0xe0 coreutils/lib.a(printf.o)
 .pdr           0x0000000000004200       0x20 coreutils/lib.a(pwd.o)
 .pdr           0x0000000000004220       0x20 coreutils/lib.a(rm.o)
 .pdr           0x0000000000004240       0x20 coreutils/lib.a(sleep.o)
 .pdr           0x0000000000004260       0x40 coreutils/lib.a(sort.o)
 .pdr           0x00000000000042a0       0x20 coreutils/lib.a(sync.o)
 .pdr           0x00000000000042c0      0x100 coreutils/lib.a(test.o)
 .pdr           0x00000000000043c0       0x20 coreutils/lib.a(touch.o)
 .pdr           0x00000000000043e0       0x20 coreutils/lib.a(uname.o)
 .pdr           0x0000000000004400       0x20 coreutils/lib.a(wc.o)
 .pdr           0x0000000000004420       0x40 coreutils/libcoreutils/lib.a(cp_mv_stat.o)
 .pdr           0x0000000000004460       0x20 coreutils/libcoreutils/lib.a(getopt_mk_fifo_nod.o)
 .pdr           0x0000000000004480      0x6e0 editors/lib.a(awk.o)
 .pdr           0x0000000000004b60      0x220 editors/lib.a(sed.o)
 .pdr           0x0000000000004d80      0x600 editors/lib.a(vi.o)
 .pdr           0x0000000000005380       0xa0 findutils/lib.a(grep.o)
 .pdr           0x0000000000005420       0x20 init/lib.a(halt.o)
 .pdr           0x0000000000005440      0x280 init/lib.a(init.o)
 .pdr           0x00000000000056c0       0x20 libbb/lib.a(ask_confirmation.o)
 .pdr           0x00000000000056e0       0x40 libbb/lib.a(bb_askpass.o)
 .pdr           0x0000000000005720       0x20 libbb/lib.a(bb_do_delay.o)
 .pdr           0x0000000000005740       0xa0 libbb/lib.a(bb_pwd.o)
 .pdr           0x00000000000057e0       0x20 libbb/lib.a(change_identity.o)
 .pdr           0x0000000000005800       0x60 libbb/lib.a(compare_string_array.o)
 .pdr           0x0000000000005860       0x20 libbb/lib.a(concat_path_file.o)
 .pdr           0x0000000000005880       0x40 libbb/lib.a(copy_file.o)
 .pdr           0x00000000000058c0       0x20 libbb/lib.a(correct_password.o)
 .pdr           0x00000000000058e0       0x20 libbb/lib.a(create_icmp_socket.o)
 .pdr           0x0000000000005900       0x40 libbb/lib.a(crypt_make_salt.o)
 .pdr           0x0000000000005940       0x20 libbb/lib.a(device_open.o)
 .pdr           0x0000000000005960       0x20 libbb/lib.a(die_if_bad_username.o)
 .pdr           0x0000000000005980       0x20 libbb/lib.a(fclose_nonstdin.o)
 .pdr           0x00000000000059a0       0x20 libbb/lib.a(fflush_stdout_and_exit.o)
 .pdr           0x00000000000059c0       0x20 libbb/lib.a(find_pid_by_name.o)
 .pdr           0x00000000000059e0       0x80 libbb/lib.a(get_line_from_file.o)
 .pdr           0x0000000000005a60       0x20 libbb/lib.a(getopt32.o)
 .pdr           0x0000000000005a80       0x20 libbb/lib.a(getpty.o)
 .pdr           0x0000000000005aa0       0x20 libbb/lib.a(herror_msg_and_die.o)
 .pdr           0x0000000000005ac0       0x40 libbb/lib.a(inet_common.o)
 .pdr           0x0000000000005b00       0x20 libbb/lib.a(info_msg.o)
 .pdr           0x0000000000005b20       0x40 libbb/lib.a(inode_hash.o)
 .pdr           0x0000000000005b60      0x2a0 libbb/lib.a(lineedit.o)
 .pdr           0x0000000000005e00       0x60 libbb/lib.a(llist.o)
 .pdr           0x0000000000005e60       0x60 libbb/lib.a(login.o)
 .pdr           0x0000000000005ec0       0x20 libbb/lib.a(make_directory.o)
 .pdr           0x0000000000005ee0       0x20 libbb/lib.a(makedev.o)
 .pdr           0x0000000000005f00       0x20 libbb/lib.a(match_fstype.o)
 .pdr           0x0000000000005f20       0x20 libbb/lib.a(mode_string.o)
 .pdr           0x0000000000005f40       0xa0 libbb/lib.a(parse_config.o)
 .pdr           0x0000000000005fe0       0x20 libbb/lib.a(parse_mode.o)
 .pdr           0x0000000000006000       0x20 libbb/lib.a(perror_nomsg_and_die.o)
 .pdr           0x0000000000006020       0x20 libbb/lib.a(pidfile.o)
 .pdr           0x0000000000006040       0x20 libbb/lib.a(print_flags.o)
 .pdr           0x0000000000006060       0x20 libbb/lib.a(process_escape_sequence.o)
 .pdr           0x0000000000006080       0xc0 libbb/lib.a(procps.o)
 .pdr           0x0000000000006140       0x20 libbb/lib.a(pw_encrypt.o)
 .pdr           0x0000000000006160       0x40 libbb/lib.a(recursive_action.o)
 .pdr           0x00000000000061a0       0x20 libbb/lib.a(remove_file.o)
 .pdr           0x00000000000061c0       0x20 libbb/lib.a(run_shell.o)
 .pdr           0x00000000000061e0       0x20 libbb/lib.a(safe_gethostname.o)
 .pdr           0x0000000000006200       0x40 libbb/lib.a(safe_strncpy.o)
 .pdr           0x0000000000006240       0x20 libbb/lib.a(setup_environment.o)
 .pdr           0x0000000000006260       0xc0 libbb/lib.a(signals.o)
 .pdr           0x0000000000006320       0x20 libbb/lib.a(simplify_path.o)
 .pdr           0x0000000000006340       0x40 libbb/lib.a(speed_table.o)
 .pdr           0x0000000000006380       0x20 libbb/lib.a(str_tolower.o)
 .pdr           0x00000000000063a0       0x40 libbb/lib.a(time.o)
 .pdr           0x00000000000063e0       0x60 libbb/lib.a(u_signal_names.o)
 .pdr           0x0000000000006440       0x20 libbb/lib.a(update_passwd.o)
 .pdr           0x0000000000006460       0x20 libbb/lib.a(uuencode.o)
 .pdr           0x0000000000006480       0xa0 libbb/lib.a(vfork_daemon_rexec.o)
 .pdr           0x0000000000006520       0x20 libbb/lib.a(warn_ignoring_args.o)
 .pdr           0x0000000000006540       0x60 libbb/lib.a(wfopen_input.o)
 .pdr           0x00000000000065a0       0x20 libbb/lib.a(write.o)
 .pdr           0x00000000000065c0      0x120 libbb/lib.a(xatonum.o)
 .pdr           0x00000000000066e0      0x200 libbb/lib.a(xconnect.o)
 .pdr           0x00000000000068e0       0x20 libbb/lib.a(xgetcwd.o)
 .pdr           0x0000000000006900       0x20 libbb/lib.a(xgethostbyname.o)
 .pdr           0x0000000000006920       0x60 libbb/lib.a(xreadlink.o)
 .pdr           0x0000000000006980       0x20 libbb/lib.a(xrealloc_vector.o)
 .pdr           0x00000000000069a0       0x40 libbb/lib.a(xregcomp.o)
 .pdr           0x00000000000069e0       0x40 libbb/lib.a(bb_qsort.o)
 .pdr           0x0000000000006a20       0x20 libbb/lib.a(concat_subpath_file.o)
 .pdr           0x0000000000006a40       0x20 /opt/buildroot-gcc342/bin/../lib/gcc/mipsel-linux-uclibc/3.4.2/libgcc.a(_divdi3.o)
 .pdr           0x0000000000006a60       0x20 /opt/buildroot-gcc342/bin/../lib/gcc/mipsel-linux-uclibc/3.4.2/libgcc.a(_udivdi3.o)
 .pdr           0x0000000000006a80       0x20 /opt/buildroot-gcc342/bin/../lib/gcc/mipsel-linux-uclibc/3.4.2/libgcc.a(_umoddi3.o)
 .pdr           0x0000000000006aa0       0x40 /opt/buildroot-gcc342/bin/../lib/gcc/mipsel-linux-uclibc/3.4.2/../../../../mipsel-linux-uclibc/lib/crtn.o

.mdebug.abi32   0x0000000000000000        0x0

.debug_ranges   0x0000000000000000      0x2b8
 .debug_ranges  0x0000000000000000       0xf0 /opt/buildroot-gcc342/bin/../lib/gcc/mipsel-linux-uclibc/3.4.2/libgcc.a(_divdi3.o)
 .debug_ranges  0x00000000000000f0       0xf0 /opt/buildroot-gcc342/bin/../lib/gcc/mipsel-linux-uclibc/3.4.2/libgcc.a(_udivdi3.o)
 .debug_ranges  0x00000000000001e0       0xd8 /opt/buildroot-gcc342/bin/../lib/gcc/mipsel-linux-uclibc/3.4.2/libgcc.a(_umoddi3.o)
